(dp1
S'output'
p2
S"<type 'exceptions.NameError'> name 'fox_background' is not defined"
p3
sS'layer'
p4
S'/home/matthew/Classes/CS183/project/web2py/applications/AstroChat/views/default/edit_profile.html'
p5
sS'code'
p6
S'response.write(\'<html>\\n  <head>\\n    <meta charset="utf-8">\\n    <meta http-equiv="X-UA-Compatible" content="IE=edge,chrome=1">\\n    <meta name="viewport" content="width=device-width, initial-scale=1.0" />\\n    <meta name="apple-mobile-web-app-capable" content="yes" />\\n    <link href="\', escape=False)\nresponse.write(URL(\'static\',\'css/stupid.css\'))\nresponse.write(\'" rel="stylesheet" type="text/css"/>\\n    <link href="\', escape=False)\nresponse.write(URL(\'static\',\'css/custom.css\'))\nresponse.write(\'" rel="stylesheet" type="text/css"/>\\n    <link href="\', escape=False)\nresponse.write(URL(\'static\',\'css/calendar.css\'))\nresponse.write(\'" rel="stylesheet" type="text/css"/>\\n    <link href="\', escape=False)\nresponse.write(URL(\'static\',\'css/web2py.css\'))\nresponse.write(\'" rel="stylesheet" type="text/css"/>\\n    <link href="\', escape=False)\nresponse.write(URL(\'static\',\'css/myapp.css\'))\nresponse.write(\'" rel="stylesheet" type="text/css"/>\\n    <link href="\', escape=False)\nresponse.write(URL(\'static\',\'css/edit_profile.css\'))\nresponse.write(\'" rel="stylesheet" type="text/css"/>\\n    <link rel="stylesheet" href="\', escape=False)\nresponse.write(URL(\'static\', \'font-awesome-4.6.3/css/font-awesome.min.css\'))\nresponse.write(\'">\\n    \', escape=False)\nresponse.write(\'<script type="text/javascript"><!--\\n    // These variables are used by the web2py_ajax_init function in web2py_ajax.js (which is loaded below).\\n    var w2p_ajax_confirm_message = "\', escape=False)\nresponse.write(T(\'Are you sure you want to delete this object?\'))\nresponse.write(\'";\\n    var w2p_ajax_disable_with_message = "\', escape=False)\nresponse.write(T(\'Working...\'))\nresponse.write(\'";\\n    var w2p_ajax_date_format = "\', escape=False)\nresponse.write(T(\'%Y-%m-%d\'))\nresponse.write(\'";\\n    var w2p_ajax_datetime_format = "\', escape=False)\nresponse.write(T(\'%Y-%m-%d %H:%M:%S\'))\nresponse.write(\'";\\n    var ajax_error_500 = \\\'\', escape=False)\nresponse.write(T.M(\'An error occured, please [[reload %s]] the page\') % URL(args=request.args, vars=request.get_vars))\nresponse.write("\'\\n    //--></script>\\n", escape=False)\nresponse.files.insert(0,URL(\'static\',\'js/jquery.js\'))\nresponse.files.insert(1,URL(\'static\',\'css/calendar.css\'))\nresponse.files.insert(2,URL(\'static\',\'js/calendar.js\'))\nresponse.files.insert(3,URL(\'static\',\'js/web2py.js\'))\nresponse.include_meta()\nresponse.include_files()\nresponse.write(\'\\n\', escape=False)\nresponse.write(\'\\n  </head>\\n  <body class="black">\\n    \', escape=False)\nif response.flash:\n    response.write(\'\\n    <div class="w2p_flash">\\n      \', escape=False)\n    response.write(response.flash)\n    response.write(\'\\n    </div>\\n    \', escape=False)\n    pass\nresponse.write(\'\\n    <header class="black padded">\\n      <div class="container middle max900">\\n        <div class="fill middle">\\n          <label class="ham padded fa fa-bars" for="menu"></label>\\n          <div class="burger accordion">\\n            <input type="checkbox" id="menu"/>\\n            \', escape=False)\nresponse.write(MENU(response.menu,_class=\'menu\'))\nresponse.write(\'\\n            <ul class="menu right">\\n              <li>\\n                \', escape=False)\nresponse.write(auth.navbar(mode=\'dropdown\'))\nresponse.write(\'\\n              </li>\\n            </ul>\\n          </div>\\n        </div>\\n      </div>\\n    </header>\\n    <main class="white">\\n      \', escape=False)\nresponse.write(\'\\n\\n<div class="mycontent">\\n  \\n    <div class="container"> \\n      <div class="padd">\\n        <h1>Edit profile HERE!</h1>\\n        <div class="container \', escape=False)\nresponse.write(table.banner)\nresponse.write(\'">\\n\\t <div class="padd">\\n          <form action="submit" method="POST" enctype="multipart/form-data">\\n\\t    <fieldset>\\n\\t      <legend>Text input</legend>\\n              \', escape=False)\nif table is not None:\n    response.write(\'\\n              \\t<p>\\n                  <label>Birthday</label>\\n                  <input type = "date" \\n                         name = "birthday"\\n                         id = "birthday"\\n                         value = "\', escape=False)\n    response.write(table.birthday)\n    response.write(\'">\\n                </p>\\n                <p>\\n\\t          <label>Picture</label>\\n                  <input type = "file"\\n                         name = "picture"\\n\\t\\t         id = "picture"\\n                         value = "\', escape=False)\n    response.write(table.profile_picture)\n    response.write(\'">\\n                </p>\\n                <p>\\n                  <label>Bio</label>\\n                  <textarea id = "bio"\\n                            name = "bio"\\n                            rows = "4"\\n                            cols = "80">\', escape=False)\n    response.write(table.bio)\n    response.write(\'</textarea>\\n                </p>\\n                  <p>\\n                    <label>Banner</label>\\n                    <select name="banner" id="banner">\\n\\t\\t        <option  selected value="\', escape=False)\n    response.write(table.banner)\n    response.write(\'">\', escape=False)\n    response.write(table.banner)\n    response.write(\'</option>\\n                        <option value="Red">Red</option>\\n\\t\\t        <option value="Green">Green</option>\\n\\t\\t        <option value="Blue">Blue</option>\\n                  </p>\\n               \\n              \', escape=False)\nelse:\n    response.write(\'\\n                <p>\\n                  <label>Birthday</label>\\n                  <input type = "date" \\n                         name = "birthday"\\n                         id = "birthday"/>\\n                </p>\\n                <p>\\n\\t          <label>Picture</label>\\n                  <input type = "file"\\n                         name = "picture"\\n\\t\\t         id = "picture"\\n                                       >\\n                </p>\\n                <p>\\n                  <label>Bio</label>\\n                  <textarea id = "bio"\\n                            name = "bio"\\n                            rows = "4"\\n                            cols = "80"\\n\\t\\t\\t    placeholder = "description..."></textarea>\\n                </p>\\n                <p>\\n                  <label>Banner</label>\\n                  <select name="banner" id="banner">\\n                    <option disabled selected value> -- choose a color -- </option>\\n\\t\\t    <option value="Red">Red</option>\\n\\t\\t    <option value="Green">Green</option>\\n\\t\\t    <option value="Blue">Blue</option>\\n                </p>\\n              \', escape=False)\n    pass\nresponse.write(\'\\n              <p>\\n                <button>Submit</button>\\n\\t        <input type="submit" value="Submit">\\n              </p>\\n \\t    <fieldset>\\n          </form>\\n        </div>\\n      </div>\\n     </div>\\n    </div>\\n   \\n    <img src="\', escape=False)\nresponse.write(URL(\'static\', \'images\', \'profile_pics\', fox_background.jpg))\nresponse.write(\'">\\n    <!--img src="https://www.gettyimages.com/gi-resources/images/Embed/new/embed2.jpg"--> \\n</div>\\n\', escape=False)\nresponse.write(\'\\n    </main>\\n    <footer class="black">\\n      <div class="silver center padded social">\\n        <a class="fa fa-facebook" href="https://www.facebook.com/sharer/sharer.php?u={url}"></a>\\n        <a class="fa fa-twitter" href="https://twitter.com/home?status={url}"></a>\\n        <a class="fa fa-google" href="https://plus.google.com/share?url={url}"></a>\\n      </div>\\n      <div class="container padded max900">\\n        <div class="fill">\\n          Copyright @ 2016\\n        </div>\\n      </div>\\n    </footer>\\n  </body>\\n  <script src="\', escape=False)\nresponse.write(URL(\'static\',\'js/marked.min.js\'))\nresponse.write(\'"></script>\\n  <script src="\', escape=False)\nresponse.write(URL(\'static\',\'js/vue.min.js\'))\nresponse.write(\'"></script>\\n  \', escape=False)\nresponse.write("\\n  <script>\\n    jQuery(\'.social a\').each(function(){var t=jQuery(this); t.attr(\'href\',t.attr(\'href\').replace(\'{url}\',encodeURIComponent(window.location.href)));});\\n  </script>\\n</html>\\n", escape=False)'
p7
sS'snapshot'
p8
(dp9
S'exception'
p10
(dp11
S'__getslice__'
p12
S"<method-wrapper '__getslice__' of exceptions.NameError object>"
p13
sS'__str__'
p14
S"<method-wrapper '__str__' of exceptions.NameError object>"
p15
sS'__reduce__'
p16
S'<built-in method __reduce__ of exceptions.NameError object>'
p17
sS'__dict__'
p18
S'{}'
p19
sS'message'
p20
S'"name \'fox_background\' is not defined"'
p21
sS'__sizeof__'
p22
S'<built-in method __sizeof__ of exceptions.NameError object>'
p23
sS'__init__'
p24
S"<method-wrapper '__init__' of exceptions.NameError object>"
p25
sS'__setattr__'
p26
S"<method-wrapper '__setattr__' of exceptions.NameError object>"
p27
sS'__reduce_ex__'
p28
S'<built-in method __reduce_ex__ of exceptions.NameError object>'
p29
sS'__new__'
p30
S'<built-in method __new__ of type object>'
p31
sS'__format__'
p32
S'<built-in method __format__ of exceptions.NameError object>'
p33
sS'__class__'
p34
S"<type 'exceptions.NameError'>"
p35
sS'__doc__'
p36
S"'Name not found globally.'"
p37
sS'__getitem__'
p38
S"<method-wrapper '__getitem__' of exceptions.NameError object>"
p39
sS'__setstate__'
p40
S'<built-in method __setstate__ of exceptions.NameError object>'
p41
sS'__getattribute__'
p42
S"<method-wrapper '__getattribute__' of exceptions.NameError object>"
p43
sS'args'
p44
S'("name \'fox_background\' is not defined",)'
p45
sS'__subclasshook__'
p46
S'<built-in method __subclasshook__ of type object>'
p47
sS'__unicode__'
p48
S'<built-in method __unicode__ of exceptions.NameError object>'
p49
sS'__delattr__'
p50
S"<method-wrapper '__delattr__' of exceptions.NameError object>"
p51
sS'__repr__'
p52
S"<method-wrapper '__repr__' of exceptions.NameError object>"
p53
sS'__hash__'
p54
S"<method-wrapper '__hash__' of exceptions.NameError object>"
p55
ssS'evalue'
p56
S"name 'fox_background' is not defined"
p57
sS'request'
p58
cgluon.html
XML_unpickle
p59
(S's\x07R\x00\x00<div><table><tr><td style="font-weight:bold;vertical-align:top;">ajax</td><td style="vertical-align:top;">:</td><td><div>False</div></td></tr><tr><td style="font-weight:bold;vertical-align:top;">application</td><td style="vertical-align:top;">:</td><td><div>AstroChat</div></td></tr><tr><td style="font-weight:bold;vertical-align:top;">args</td><td style="vertical-align:top;">:</td><td><div><table></table></div></td></tr><tr><td style="font-weight:bold;vertical-align:top;">cid</td><td style="vertical-align:top;">:</td><td><div>None</div></td></tr><tr><td style="font-weight:bold;vertical-align:top;">client</td><td style="vertical-align:top;">:</td><td><div>127.0.0.1</div></td></tr><tr><td style="font-weight:bold;vertical-align:top;">controller</td><td style="vertical-align:top;">:</td><td><div>default</div></td></tr><tr><td style="font-weight:bold;vertical-align:top;">cookies</td><td style="vertical-align:top;">:</td><td><div><table><tr><td style="font-weight:bold;vertical-align:top;">session_id_astrochat</td><td style="vertical-align:top;">:</td><td><div>15:d5203ab2-26d8-4dce-8a7c-c4ca180ca8b5<table><tr><td style="font-weight:bold;vertical-align:top;">comment</td><td style="vertical-align:top;">:</td><td><div></div></td></tr><tr><td style="font-weight:bold;vertical-align:top;">domain</td><td style="vertical-align:top;">:</td><td><div></div></td></tr><tr><td style="font-weight:bold;vertical-align:top;">expires</td><td style="vertical-align:top;">:</td><td><div></div></td></tr><tr><td style="font-weight:bold;vertical-align:top;">httponly</td><td style="vertical-align:top;">:</td><td><div></div></td></tr><tr><td style="font-weight:bold;vertical-align:top;">max-age</td><td style="vertical-align:top;">:</td><td><div></div></td></tr><tr><td style="font-weight:bold;vertical-align:top;">path</td><td style="vertical-align:top;">:</td><td><div></div></td></tr><tr><td style="font-weight:bold;vertical-align:top;">secure</td><td style="vertical-align:top;">:</td><td><div></div></td></tr><tr><td style="font-weight:bold;vertical-align:top;">version</td><td style="vertical-align:top;">:</td><td><div></div></td></tr></table></div></td></tr></table></div></td></tr><tr><td style="font-weight:bold;vertical-align:top;">env</td><td style="vertical-align:top;">:</td><td><div><table><tr><td style="font-weight:bold;vertical-align:top;">HTTP_ACCEPT</td><td style="vertical-align:top;">:</td><td><div>text/html,application/xhtml+xml,application/xml;q=0.9,*/*;q=0.8</div></td></tr><tr><td style="font-weight:bold;vertical-align:top;">HTTP_ACCEPT_ENCODING</td><td style="vertical-align:top;">:</td><td><div>gzip, deflate</div></td></tr><tr><td style="font-weight:bold;vertical-align:top;">HTTP_ACCEPT_LANGUAGE</td><td style="vertical-align:top;">:</td><td><div>en-GB,en;q=0.5</div></td></tr><tr><td style="font-weight:bold;vertical-align:top;">HTTP_CONNECTION</td><td style="vertical-align:top;">:</td><td><div>keep-alive</div></td></tr><tr><td style="font-weight:bold;vertical-align:top;">HTTP_COOKIE</td><td style="vertical-align:top;">:</td><td><div>session_id_astrochat=&quot;15:d5203ab2-26d8-4dce-8a7c-c4ca180ca8b5&quot;</div></td></tr><tr><td style="font-weight:bold;vertical-align:top;">HTTP_DNT</td><td style="vertical-align:top;">:</td><td><div>1</div></td></tr><tr><td style="font-weight:bold;vertical-align:top;">HTTP_HOST</td><td style="vertical-align:top;">:</td><td><div>127.0.0.1:8000</div></td></tr><tr><td style="font-weight:bold;vertical-align:top;">HTTP_UPGRADE_INSECURE_REQUESTS</td><td style="vertical-align:top;">:</td><td><div>1</div></td></tr><tr><td style="font-weight:bold;vertical-align:top;">HTTP_USER_AGENT</td><td style="vertical-align:top;">:</td><td><div>Mozilla/5.0 (X11; Ubuntu; Linux x86_64; rv:60.0) Gecko/20100101 Firefox/60.0</div></td></tr><tr><td style="font-weight:bold;vertical-align:top;">PATH_INFO</td><td style="vertical-align:top;">:</td><td><div>/AstroChat/default/edit_profile/</div></td></tr><tr><td style="font-weight:bold;vertical-align:top;">QUERY_STRING</td><td style="vertical-align:top;">:</td><td><div></div></td></tr><tr><td style="font-weight:bold;vertical-align:top;">REMOTE_ADDR</td><td style="vertical-align:top;">:</td><td><div>127.0.0.1</div></td></tr><tr><td style="font-weight:bold;vertical-align:top;">REMOTE_PORT</td><td style="vertical-align:top;">:</td><td><div>43558</div></td></tr><tr><td style="font-weight:bold;vertical-align:top;">REQUEST_METHOD</td><td style="vertical-align:top;">:</td><td><div>GET</div></td></tr><tr><td style="font-weight:bold;vertical-align:top;">SCRIPT_NAME</td><td style="vertical-align:top;">:</td><td><div></div></td></tr><tr><td style="font-weight:bold;vertical-align:top;">SERVER_NAME</td><td style="vertical-align:top;">:</td><td><div>matthew-XPS-13-9360</div></td></tr><tr><td style="font-weight:bold;vertical-align:top;">SERVER_PORT</td><td style="vertical-align:top;">:</td><td><div>8000</div></td></tr><tr><td style="font-weight:bold;vertical-align:top;">SERVER_PROTOCOL</td><td style="vertical-align:top;">:</td><td><div>HTTP/1.1</div></td></tr><tr><td style="font-weight:bold;vertical-align:top;">SERVER_SOFTWARE</td><td style="vertical-align:top;">:</td><td><div>Rocket 1.2.6</div></td></tr><tr><td style="font-weight:bold;vertical-align:top;">app_folders</td><td style="vertical-align:top;">:</td><td><div>set([&#x27;/home/matthew/Classes/CS183/project/web2py/applications/welcome/&#x27;, &#x27;/home/matthew/Classes/CS183/project/web2py/applications/AstroChat/&#x27;])</div></td></tr><tr><td style="font-weight:bold;vertical-align:top;">applications_parent</td><td style="vertical-align:top;">:</td><td><div>/home/matthew/Classes/CS183/project/web2py</div></td></tr><tr><td style="font-weight:bold;vertical-align:top;">cmd_args</td><td style="vertical-align:top;">:</td><td><div><table></table></div></td></tr><tr><td style="font-weight:bold;vertical-align:top;">cmd_options</td><td style="vertical-align:top;">:</td><td><div>&lt;Values at 0x7f00905be3f8: {&#x27;verbose&#x27;: False, &#x27;ip&#x27;: &#x27;127.0.0.1&#x27;, &#x27;debuglevel&#x27;: 30, &#x27;with_scheduler&#x27;: False, &#x27;shutdown_timeout&#x27;: 5, &#x27;taskbar&#x27;: False, &#x27;with_coverage&#x27;: False, &#x27;pid_filename&#x27;: &#x27;httpserver.pid&#x27;, &#x27;maxthreads&#x27;: None, &#x27;softcron&#x27;: False, &#x27;server_name&#x27;: &#x27;matthew-XPS-13-9360&#x27;, &#x27;bpython&#x27;: False, &#x27;nogui&#x27;: False, &#x27;port&#x27;: 8000, &#x27;print_errors&#x27;: True, &#x27;extcron&#x27;: False, &#x27;runcron&#x27;: False, &#x27;run_system_tests&#x27;: False, &#x27;test&#x27;: None, &#x27;folder&#x27;: &#x27;/home/matthew/Classes/CS183/project/web2py&#x27;, &#x27;config&#x27;: &#x27;&#x27;, &#x27;minthreads&#x27;: None, &#x27;shell&#x27;: None, &#x27;run&#x27;: &#x27;&#x27;, &#x27;log_filename&#x27;: &#x27;httpserver.log&#x27;, &#x27;profiler_dir&#x27;: None, &#x27;args&#x27;: [&#x27;&#x27;], &#x27;socket_timeout&#x27;: 5, &#x27;ssl_ca_certificate&#x27;: None, &#x27;scheduler&#x27;: None, &#x27;interfaces&#x27;: None, &#x27;ssl_private_key&#x27;: &#x27;&#x27;, &#x27;gae&#x27;: None, &#x27;password&#x27;: &#x27;******&#x27;, &#x27;request_queue_size&#x27;: 5, &#x27;ssl_certificate&#x27;: &#x27;&#x27;, &#x27;cronjob&#x27;: False, &#x27;numthreads&#x27;: None, &#x27;quiet&#x27;: False, &#x27;import_models&#x27;: False, &#x27;timeout&#x27;: 10, &#x27;plain&#x27;: False, &#x27;nobanner&#x27;: False}&gt;</div></td></tr><tr><td style="font-weight:bold;vertical-align:top;">db_sessions</td><td style="vertical-align:top;">:</td><td><div>set([&#x27;AstroChat&#x27;])</div></td></tr><tr><td style="font-weight:bold;vertical-align:top;">debugging</td><td style="vertical-align:top;">:</td><td><div>False</div></td></tr><tr><td style="font-weight:bold;vertical-align:top;">gluon_parent</td><td style="vertical-align:top;">:</td><td><div>/home/matthew/Classes/CS183/project/web2py</div></td></tr><tr><td style="font-weight:bold;vertical-align:top;">http_accept</td><td style="vertical-align:top;">:</td><td><div>text/html,application/xhtml+xml,application/xml;q=0.9,*/*;q=0.8</div></td></tr><tr><td style="font-weight:bold;vertical-align:top;">http_accept_encoding</td><td style="vertical-align:top;">:</td><td><div>gzip, deflate</div></td></tr><tr><td style="font-weight:bold;vertical-align:top;">http_accept_language</td><td style="vertical-align:top;">:</td><td><div>en-GB,en;q=0.5</div></td></tr><tr><td style="font-weight:bold;vertical-align:top;">http_connection</td><td style="vertical-align:top;">:</td><td><div>keep-alive</div></td></tr><tr><td style="font-weight:bold;vertical-align:top;">http_cookie</td><td style="vertical-align:top;">:</td><td><div>session_id_astrochat=&quot;15:d5203ab2-26d8-4dce-8a7c-c4ca180ca8b5&quot;</div></td></tr><tr><td style="font-weight:bold;vertical-align:top;">http_dnt</td><td style="vertical-align:top;">:</td><td><div>1</div></td></tr><tr><td style="font-weight:bold;vertical-align:top;">http_host</td><td style="vertical-align:top;">:</td><td><div>127.0.0.1:8000</div></td></tr><tr><td style="font-weight:bold;vertical-align:top;">http_upgrade_insecure_requests</td><td style="vertical-align:top;">:</td><td><div>1</div></td></tr><tr><td style="font-weight:bold;vertical-align:top;">http_user_agent</td><td style="vertical-align:top;">:</td><td><div>Mozilla/5.0 (X11; Ubuntu; Linux x86_64; rv:60.0) Gecko/20100101 Firefox/60.0</div></td></tr><tr><td style="font-weight:bold;vertical-align:top;">is_jython</td><td style="vertical-align:top;">:</td><td><div>False</div></td></tr><tr><td style="font-weight:bold;vertical-align:top;">is_py2</td><td style="vertical-align:top;">:</td><td><div>True</div></td></tr><tr><td style="font-weight:bold;vertical-align:top;">is_pypy</td><td style="vertical-align:top;">:</td><td><div>False</div></td></tr><tr><td style="font-weight:bold;vertical-align:top;">is_source</td><td style="vertical-align:top;">:</td><td><div>True</div></td></tr><tr><td style="font-weight:bold;vertical-align:top;">local_hosts</td><td style="vertical-align:top;">:</td><td><div><table><tr><td><div>matthew-XPS-13-9360</div></td></tr><tr><td><div>::1</div></td></tr><tr><td><div>127.0.1.1</div></td></tr><tr><td><div>::ffff:127.0.0.1</div></td></tr><tr><td><div>127.0.0.1</div></td></tr></table></div></td></tr><tr><td style="font-weight:bold;vertical-align:top;">path_info</td><td style="vertical-align:top;">:</td><td><div>/AstroChat/default/edit_profile/</div></td></tr><tr><td style="font-weight:bold;vertical-align:top;">query_string</td><td style="vertical-align:top;">:</td><td><div></div></td></tr><tr><td style="font-weight:bold;vertical-align:top;">remote_addr</td><td style="vertical-align:top;">:</td><td><div>127.0.0.1</div></td></tr><tr><td style="font-weight:bold;vertical-align:top;">remote_port</td><td style="vertical-align:top;">:</td><td><div>43558</div></td></tr><tr><td style="font-weight:bold;vertical-align:top;">request_method</td><td style="vertical-align:top;">:</td><td><div>GET</div></td></tr><tr><td style="font-weight:bold;vertical-align:top;">request_uri</td><td style="vertical-align:top;">:</td><td><div>/AstroChat/default/edit_profile/</div></td></tr><tr><td style="font-weight:bold;vertical-align:top;">script_name</td><td style="vertical-align:top;">:</td><td><div></div></td></tr><tr><td style="font-weight:bold;vertical-align:top;">server_name</td><td style="vertical-align:top;">:</td><td><div>matthew-XPS-13-9360</div></td></tr><tr><td style="font-weight:bold;vertical-align:top;">server_port</td><td style="vertical-align:top;">:</td><td><div>8000</div></td></tr><tr><td style="font-weight:bold;vertical-align:top;">server_protocol</td><td style="vertical-align:top;">:</td><td><div>HTTP/1.1</div></td></tr><tr><td style="font-weight:bold;vertical-align:top;">server_software</td><td style="vertical-align:top;">:</td><td><div>Rocket 1.2.6</div></td></tr><tr><td style="font-weight:bold;vertical-align:top;">web2py_path</td><td style="vertical-align:top;">:</td><td><div>/home/matthew/Classes/CS183/project/web2py</div></td></tr><tr><td style="font-weight:bold;vertical-align:top;">web2py_version</td><td style="vertical-align:top;">:</td><td><div>2.16.1-stable+timestamp.2017.11.14.05.54.25</div></td></tr><tr><td style="font-weight:bold;vertical-align:top;">wsgi.errors</td><td style="vertical-align:top;">:</td><td><div>&lt;open file &#x27;&lt;stderr&gt;&#x27;, mode &#x27;w&#x27; at 0x7f0096c721e0&gt;</div></td></tr><tr><td style="font-weight:bold;vertical-align:top;">wsgi.file_wrapper</td><td style="vertical-align:top;">:</td><td><div>&lt;class wsgiref.util.FileWrapper at 0x7f00905ef9a8&gt;</div></td></tr><tr><td style="font-weight:bold;vertical-align:top;">wsgi.input</td><td style="vertical-align:top;">:</td><td><div>&lt;socket._fileobject object at 0x7f008c592b50&gt;</div></td></tr><tr><td style="font-weight:bold;vertical-align:top;">wsgi.multiprocess</td><td style="vertical-align:top;">:</td><td><div>False</div></td></tr><tr><td style="font-weight:bold;vertical-align:top;">wsgi.multithread</td><td style="vertical-align:top;">:</td><td><div>True</div></td></tr><tr><td style="font-weight:bold;vertical-align:top;">wsgi.run_once</td><td style="vertical-align:top;">:</td><td><div>False</div></td></tr><tr><td style="font-weight:bold;vertical-align:top;">wsgi.url_scheme</td><td style="vertical-align:top;">:</td><td><div>http</div></td></tr><tr><td style="font-weight:bold;vertical-align:top;">wsgi.version</td><td style="vertical-align:top;">:</td><td><div><table><tr><td><div>1</div></td></tr><tr><td><div>0</div></td></tr></table></div></td></tr><tr><td style="font-weight:bold;vertical-align:top;">wsgi_errors</td><td style="vertical-align:top;">:</td><td><div>&lt;open file &#x27;&lt;stderr&gt;&#x27;, mode &#x27;w&#x27; at 0x7f0096c721e0&gt;</div></td></tr><tr><td style="font-weight:bold;vertical-align:top;">wsgi_file_wrapper</td><td style="vertical-align:top;">:</td><td><div>&lt;class wsgiref.util.FileWrapper at 0x7f00905ef9a8&gt;</div></td></tr><tr><td style="font-weight:bold;vertical-align:top;">wsgi_input</td><td style="vertical-align:top;">:</td><td><div>&lt;socket._fileobject object at 0x7f008c592b50&gt;</div></td></tr><tr><td style="font-weight:bold;vertical-align:top;">wsgi_multiprocess</td><td style="vertical-align:top;">:</td><td><div>False</div></td></tr><tr><td style="font-weight:bold;vertical-align:top;">wsgi_multithread</td><td style="vertical-align:top;">:</td><td><div>True</div></td></tr><tr><td style="font-weight:bold;vertical-align:top;">wsgi_run_once</td><td style="vertical-align:top;">:</td><td><div>False</div></td></tr><tr><td style="font-weight:bold;vertical-align:top;">wsgi_url_scheme</td><td style="vertical-align:top;">:</td><td><div>http</div></td></tr><tr><td style="font-weight:bold;vertical-align:top;">wsgi_version</td><td style="vertical-align:top;">:</td><td><div><table><tr><td><div>1</div></td></tr><tr><td><div>0</div></td></tr></table></div></td></tr></table></div></td></tr><tr><td style="font-weight:bold;vertical-align:top;">extension</td><td style="vertical-align:top;">:</td><td><div>html</div></td></tr><tr><td style="font-weight:bold;vertical-align:top;">folder</td><td style="vertical-align:top;">:</td><td><div>/home/matthew/Classes/CS183/project/web2py/applications/AstroChat/</div></td></tr><tr><td style="font-weight:bold;vertical-align:top;">function</td><td style="vertical-align:top;">:</td><td><div>edit_profile</div></td></tr><tr><td style="font-weight:bold;vertical-align:top;">global_settings</td><td style="vertical-align:top;">:</td><td><div><table><tr><td style="font-weight:bold;vertical-align:top;">app_folders</td><td style="vertical-align:top;">:</td><td><div>set([&#x27;/home/matthew/Classes/CS183/project/web2py/applications/welcome/&#x27;, &#x27;/home/matthew/Classes/CS183/project/web2py/applications/AstroChat/&#x27;])</div></td></tr><tr><td style="font-weight:bold;vertical-align:top;">applications_parent</td><td style="vertical-align:top;">:</td><td><div>/home/matthew/Classes/CS183/project/web2py</div></td></tr><tr><td style="font-weight:bold;vertical-align:top;">cmd_args</td><td style="vertical-align:top;">:</td><td><div><table></table></div></td></tr><tr><td style="font-weight:bold;vertical-align:top;">cmd_options</td><td style="vertical-align:top;">:</td><td><div>&lt;Values at 0x7f00905be3f8: {&#x27;verbose&#x27;: False, &#x27;ip&#x27;: &#x27;127.0.0.1&#x27;, &#x27;debuglevel&#x27;: 30, &#x27;with_scheduler&#x27;: False, &#x27;shutdown_timeout&#x27;: 5, &#x27;taskbar&#x27;: False, &#x27;with_coverage&#x27;: False, &#x27;pid_filename&#x27;: &#x27;httpserver.pid&#x27;, &#x27;maxthreads&#x27;: None, &#x27;softcron&#x27;: False, &#x27;server_name&#x27;: &#x27;matthew-XPS-13-9360&#x27;, &#x27;bpython&#x27;: False, &#x27;nogui&#x27;: False, &#x27;port&#x27;: 8000, &#x27;print_errors&#x27;: True, &#x27;extcron&#x27;: False, &#x27;runcron&#x27;: False, &#x27;run_system_tests&#x27;: False, &#x27;test&#x27;: None, &#x27;folder&#x27;: &#x27;/home/matthew/Classes/CS183/project/web2py&#x27;, &#x27;config&#x27;: &#x27;&#x27;, &#x27;minthreads&#x27;: None, &#x27;shell&#x27;: None, &#x27;run&#x27;: &#x27;&#x27;, &#x27;log_filename&#x27;: &#x27;httpserver.log&#x27;, &#x27;profiler_dir&#x27;: None, &#x27;args&#x27;: [&#x27;&#x27;], &#x27;socket_timeout&#x27;: 5, &#x27;ssl_ca_certificate&#x27;: None, &#x27;scheduler&#x27;: None, &#x27;interfaces&#x27;: None, &#x27;ssl_private_key&#x27;: &#x27;&#x27;, &#x27;gae&#x27;: None, &#x27;password&#x27;: &#x27;******&#x27;, &#x27;request_queue_size&#x27;: 5, &#x27;ssl_certificate&#x27;: &#x27;&#x27;, &#x27;cronjob&#x27;: False, &#x27;numthreads&#x27;: None, &#x27;quiet&#x27;: False, &#x27;import_models&#x27;: False, &#x27;timeout&#x27;: 10, &#x27;plain&#x27;: False, &#x27;nobanner&#x27;: False}&gt;</div></td></tr><tr><td style="font-weight:bold;vertical-align:top;">db_sessions</td><td style="vertical-align:top;">:</td><td><div>set([&#x27;AstroChat&#x27;])</div></td></tr><tr><td style="font-weight:bold;vertical-align:top;">debugging</td><td style="vertical-align:top;">:</td><td><div>False</div></td></tr><tr><td style="font-weight:bold;vertical-align:top;">gluon_parent</td><td style="vertical-align:top;">:</td><td><div>/home/matthew/Classes/CS183/project/web2py</div></td></tr><tr><td style="font-weight:bold;vertical-align:top;">is_jython</td><td style="vertical-align:top;">:</td><td><div>False</div></td></tr><tr><td style="font-weight:bold;vertical-align:top;">is_py2</td><td style="vertical-align:top;">:</td><td><div>True</div></td></tr><tr><td style="font-weight:bold;vertical-align:top;">is_pypy</td><td style="vertical-align:top;">:</td><td><div>False</div></td></tr><tr><td style="font-weight:bold;vertical-align:top;">is_source</td><td style="vertical-align:top;">:</td><td><div>True</div></td></tr><tr><td style="font-weight:bold;vertical-align:top;">local_hosts</td><td style="vertical-align:top;">:</td><td><div><table><tr><td><div>matthew-XPS-13-9360</div></td></tr><tr><td><div>::1</div></td></tr><tr><td><div>127.0.1.1</div></td></tr><tr><td><div>::ffff:127.0.0.1</div></td></tr><tr><td><div>127.0.0.1</div></td></tr></table></div></td></tr><tr><td style="font-weight:bold;vertical-align:top;">web2py_version</td><td style="vertical-align:top;">:</td><td><div>2.16.1-stable+timestamp.2017.11.14.05.54.25</div></td></tr></table></div></td></tr><tr><td style="font-weight:bold;vertical-align:top;">is_https</td><td style="vertical-align:top;">:</td><td><div>False</div></td></tr><tr><td style="font-weight:bold;vertical-align:top;">is_local</td><td style="vertical-align:top;">:</td><td><div>True</div></td></tr><tr><td style="font-weight:bold;vertical-align:top;">is_restful</td><td style="vertical-align:top;">:</td><td><div>False</div></td></tr><tr><td style="font-weight:bold;vertical-align:top;">is_scheduler</td><td style="vertical-align:top;">:</td><td><div>False</div></td></tr><tr><td style="font-weight:bold;vertical-align:top;">is_shell</td><td style="vertical-align:top;">:</td><td><div>False</div></td></tr><tr><td style="font-weight:bold;vertical-align:top;">now</td><td style="vertical-align:top;">:</td><td><div>datetime.datetime(2018, 5, 14, 2, 51, 50, 91855)</div></td></tr><tr><td style="font-weight:bold;vertical-align:top;">raw_args</td><td style="vertical-align:top;">:</td><td><div></div></td></tr><tr><td style="font-weight:bold;vertical-align:top;">raw_extension</td><td style="vertical-align:top;">:</td><td><div>None</div></td></tr><tr><td style="font-weight:bold;vertical-align:top;">url</td><td style="vertical-align:top;">:</td><td><div>/AstroChat/default/edit_profile/</div></td></tr><tr><td style="font-weight:bold;vertical-align:top;">utcnow</td><td style="vertical-align:top;">:</td><td><div>datetime.datetime(2018, 5, 14, 9, 51, 50, 91875)</div></td></tr><tr><td style="font-weight:bold;vertical-align:top;">wsgi</td><td style="vertical-align:top;">:</td><td><div>&lt;gluon.main.LazyWSGI object at 0x7f0094cf6750&gt;</div></td></tr></table></div>'
tRp60
sS'frames'
p61
(lp62
(dp63
S'file'
p64
S'/home/matthew/Classes/CS183/project/web2py/gluon/restricted.py'
p65
sS'dump'
p66
(dp67
S'environment'
p68
S"{'A': <class 'gluon.html.A'>, 'ANY_OF': <class 'gluon.validators.ANY_OF'>, 'ASSIGNJS': <function ASSIGNJS>, 'AppConfig': <function AppConfig>, 'Auth': <class 'gluon.tools.Auth'>, 'B': <class 'gluon.html.B'>, 'BEAUTIFY': <class 'gluon.html.BEAUTIFY'>, 'BODY': <class 'gluon.html.BODY'>, 'BR': <class 'gluon.html.BR'>, 'BUTTON': <class 'gluon.html.BUTTON'>, ...}"
p69
sS'ccode'
p70
S'<code object <module> at 0x7f008c22e3b0, file "/...troChat/views/default/edit_profile.html", line 1>'
p71
ssS'lnum'
p72
I219
sS'lines'
p73
(dp74
I214
S'    if environment is None:'
p75
sI215
S'        environment = {}'
p76
sI216
S"    environment['__file__'] = layer"
p77
sI217
S"    environment['__name__'] = '__restricted__'"
p78
sI218
S'    try:'
p79
sI219
S'        exec(ccode, environment)'
p80
sI220
S'    except HTTP:'
p81
sI221
S'        raise'
p82
sI222
S'    except RestrictedError:'
p83
sI223
S'        # do not encapsulate (obfuscate) the original RestrictedError'
p84
ssS'call'
p85
S'(ccode=<code object <module> at 0x7f008c22e3b0, file "/...troChat/views/default/edit_profile.html", line 1>, environment={\'A\': <class \'gluon.html.A\'>, \'ANY_OF\': <class \'gluon.validators.ANY_OF\'>, \'ASSIGNJS\': <function ASSIGNJS>, \'AppConfig\': <function AppConfig>, \'Auth\': <class \'gluon.tools.Auth\'>, \'B\': <class \'gluon.html.B\'>, \'BEAUTIFY\': <class \'gluon.html.BEAUTIFY\'>, \'BODY\': <class \'gluon.html.BODY\'>, \'BR\': <class \'gluon.html.BR\'>, \'BUTTON\': <class \'gluon.html.BUTTON\'>, ...}, layer=\'/home/matthew/Classes/CS183/project/web2py/applications/AstroChat/views/default/edit_profile.html\', scode=\'response.write(\\\'<html>\\\\n  <head>\\\\n    <meta char...ef)));});\\\\n  </script>\\\\n</html>\\\\n", escape=False)\')'
p86
sS'func'
p87
S'restricted'
p88
sa(dp89
g64
S'/home/matthew/Classes/CS183/project/web2py/applications/AstroChat/views/default/edit_profile.html'
p90
sg66
(dp91
S'placeholder'
p92
S'undefined'
p93
sS'textarea'
p94
g93
ssg72
I64
sg73
(dp95
I64
S"response.write(URL('static', 'images', 'profile_pics', fox_background.jpg))"
p96
sI65
S'response.write(\'">\\n    <!--img src="https://www.gettyimages.com/gi-resources/images/Embed/new/embed2.jpg"--> \\n</div>\\n\', escape=False)'
p97
sI66
S'response.write(\'\\n    </main>\\n    <footer class="black">\\n      <div class="silver center padded social">\\n        <a class="fa fa-facebook" href="https://www.facebook.com/sharer/sharer.php?u={url}"></a>\\n        <a class="fa fa-twitter" href="https://twitter.com/home?status={url}"></a>\\n        <a class="fa fa-google" href="https://plus.google.com/share?url={url}"></a>\\n      </div>\\n      <div class="container padded max900">\\n        <div class="fill">\\n          Copyright @ 2016\\n        </div>\\n      </div>\\n    </footer>\\n  </body>\\n  <script src="\', escape=False)'
p98
sI67
S"response.write(URL('static','js/marked.min.js'))"
p99
sI68
S'response.write(\'"></script>\\n  <script src="\', escape=False)'
p100
sI69
S"response.write(URL('static','js/vue.min.js'))"
p101
sI70
S'response.write(\'"></script>\\n  \', escape=False)'
p102
sI71
S'response.write("\\n  <script>\\n    jQuery(\'.social a\').each(function(){var t=jQuery(this); t.attr(\'href\',t.attr(\'href\').replace(\'{url}\',encodeURIComponent(window.location.href)));});\\n  </script>\\n</html>\\n", escape=False)'
p103
sI55
S'    response.write(\'</textarea>\\n                </p>\\n                  <p>\\n                    <label>Banner</label>\\n                    <select name="banner" id="banner">\\n\\t\\t        <option  selected value="\', escape=False)'
p104
sI56
S'    response.write(table.banner)'
p105
sI57
S'    response.write(\'">\', escape=False)'
p106
sI58
S'    response.write(table.banner)'
p107
sI59
S'    response.write(\'</option>\\n                        <option value="Red">Red</option>\\n\\t\\t        <option value="Green">Green</option>\\n\\t\\t        <option value="Blue">Blue</option>\\n                  </p>\\n               \\n              \', escape=False)'
p108
sI60
S'else:'
p109
sI61
S'    response.write(\'\\n                <p>\\n                  <label>Birthday</label>\\n                  <input type = "date" \\n                         name = "birthday"\\n                         id = "birthday"/>\\n                </p>\\n                <p>\\n\\t          <label>Picture</label>\\n                  <input type = "file"\\n                         name = "picture"\\n\\t\\t         id = "picture"\\n                                       >\\n                </p>\\n                <p>\\n                  <label>Bio</label>\\n                  <textarea id = "bio"\\n                            name = "bio"\\n                            rows = "4"\\n                            cols = "80"\\n\\t\\t\\t    placeholder = "description..."></textarea>\\n                </p>\\n                <p>\\n                  <label>Banner</label>\\n                  <select name="banner" id="banner">\\n                    <option disabled selected value> -- choose a color -- </option>\\n\\t\\t    <option value="Red">Red</option>\\n\\t\\t    <option value="Green">Green</option>\\n\\t\\t    <option value="Blue">Blue</option>\\n                </p>\\n              \', escape=False)'
p110
sI62
S'    pass'
p111
sI63
S'response.write(\'\\n              <p>\\n                <button>Submit</button>\\n\\t        <input type="submit" value="Submit">\\n              </p>\\n \\t    <fieldset>\\n          </form>\\n        </div>\\n      </div>\\n     </div>\\n    </div>\\n   \\n    <img src="\', escape=False)'
p112
ssg85
S'()'
p113
sg87
S'<module>'
p114
sasS'pyver'
p115
S'Python 2.7.12: /usr/bin/python (prefix: /usr)'
p116
sS'session'
p117
g59
(S'sd\t\x00\x00<div><table><tr><td style="font-weight:bold;vertical-align:top;">auth</td><td style="vertical-align:top;">:</td><td><div><table><tr><td style="font-weight:bold;vertical-align:top;">expiration</td><td style="vertical-align:top;">:</td><td><div>3600</div></td></tr><tr><td style="font-weight:bold;vertical-align:top;">hmac_key</td><td style="vertical-align:top;">:</td><td><div>0fd4a8b4-63d4-431a-8962-a689d0f2a576</div></td></tr><tr><td style="font-weight:bold;vertical-align:top;">last_visit</td><td style="vertical-align:top;">:</td><td><div>datetime.datetime(2018, 5, 14, 2, 51, 50, 91855)</div></td></tr><tr><td style="font-weight:bold;vertical-align:top;">remember_me</td><td style="vertical-align:top;">:</td><td><div>False</div></td></tr><tr><td style="font-weight:bold;vertical-align:top;">user</td><td style="vertical-align:top;">:</td><td><div><table><tr><td style="font-weight:bold;vertical-align:top;">email</td><td style="vertical-align:top;">:</td><td><div>hi@gmail.com</div></td></tr><tr><td style="font-weight:bold;vertical-align:top;">first_name</td><td style="vertical-align:top;">:</td><td><div>afsd</div></td></tr><tr><td style="font-weight:bold;vertical-align:top;">id</td><td style="vertical-align:top;">:</td><td><div>7L</div></td></tr><tr><td style="font-weight:bold;vertical-align:top;">last_name</td><td style="vertical-align:top;">:</td><td><div>asfd</div></td></tr><tr><td style="font-weight:bold;vertical-align:top;">registration_id</td><td style="vertical-align:top;">:</td><td><div></div></td></tr><tr><td style="font-weight:bold;vertical-align:top;">registration_key</td><td style="vertical-align:top;">:</td><td><div></div></td></tr><tr><td style="font-weight:bold;vertical-align:top;">reset_password_key</td><td style="vertical-align:top;">:</td><td><div></div></td></tr><tr><td style="font-weight:bold;vertical-align:top;">username</td><td style="vertical-align:top;">:</td><td><div>test</div></td></tr></table></div></td></tr><tr><td style="font-weight:bold;vertical-align:top;">user_groups</td><td style="vertical-align:top;">:</td><td><div><table><tr><td style="font-weight:bold;vertical-align:top;">7</td><td style="vertical-align:top;">:</td><td><div>user_7</div></td></tr></table></div></td></tr></table></div></td></tr><tr><td style="font-weight:bold;vertical-align:top;">flash</td><td style="vertical-align:top;">:</td><td><div>None</div></td></tr></table></div>'
tRp118
sS'etype'
p119
S"<type 'exceptions.NameError'>"
p120
sS'date'
p121
S'Mon May 14 02:51:50 2018'
p122
sS'response'
p123
g59
(S's\x03#\x00\x00<div><table><tr><td style="font-weight:bold;vertical-align:top;">body</td><td style="vertical-align:top;">:</td><td><div>&lt;cStringIO.StringO object at 0x7f0094cfb2d0&gt;</div></td></tr><tr><td style="font-weight:bold;vertical-align:top;">cookies</td><td style="vertical-align:top;">:</td><td><div><table><tr><td style="font-weight:bold;vertical-align:top;">session_id_astrochat</td><td style="vertical-align:top;">:</td><td><div>15:d5203ab2-26d8-4dce-8a7c-c4ca180ca8b5<table><tr><td style="font-weight:bold;vertical-align:top;">comment</td><td style="vertical-align:top;">:</td><td><div></div></td></tr><tr><td style="font-weight:bold;vertical-align:top;">domain</td><td style="vertical-align:top;">:</td><td><div></div></td></tr><tr><td style="font-weight:bold;vertical-align:top;">expires</td><td style="vertical-align:top;">:</td><td><div></div></td></tr><tr><td style="font-weight:bold;vertical-align:top;">httponly</td><td style="vertical-align:top;">:</td><td><div></div></td></tr><tr><td style="font-weight:bold;vertical-align:top;">max-age</td><td style="vertical-align:top;">:</td><td><div></div></td></tr><tr><td style="font-weight:bold;vertical-align:top;">path</td><td style="vertical-align:top;">:</td><td><div>/</div></td></tr><tr><td style="font-weight:bold;vertical-align:top;">secure</td><td style="vertical-align:top;">:</td><td><div></div></td></tr><tr><td style="font-weight:bold;vertical-align:top;">version</td><td style="vertical-align:top;">:</td><td><div></div></td></tr></table></div></td></tr></table></div></td></tr><tr><td style="font-weight:bold;vertical-align:top;">delimiters</td><td style="vertical-align:top;">:</td><td><div><table><tr><td><div>{{</div></td></tr><tr><td><div>}}</div></td></tr></table></div></td></tr><tr><td style="font-weight:bold;vertical-align:top;">files</td><td style="vertical-align:top;">:</td><td><div><table><tr><td><div>/AstroChat/static/js/jquery.js</div></td></tr><tr><td><div>/AstroChat/static/css/calendar.css</div></td></tr><tr><td><div>/AstroChat/static/js/calendar.js</div></td></tr><tr><td><div>/AstroChat/static/js/web2py.js</div></td></tr></table></div></td></tr><tr><td style="font-weight:bold;vertical-align:top;">flash</td><td style="vertical-align:top;">:</td><td><div></div></td></tr><tr><td style="font-weight:bold;vertical-align:top;">form_label_separator</td><td style="vertical-align:top;">:</td><td><div></div></td></tr><tr><td style="font-weight:bold;vertical-align:top;">formstyle</td><td style="vertical-align:top;">:</td><td><div>bootstrap3_inline</div></td></tr><tr><td style="font-weight:bold;vertical-align:top;">generic_patterns</td><td style="vertical-align:top;">:</td><td><div><table><tr><td><div>*</div></td></tr></table></div></td></tr><tr><td style="font-weight:bold;vertical-align:top;">google_analytics_id</td><td style="vertical-align:top;">:</td><td><div>None</div></td></tr><tr><td style="font-weight:bold;vertical-align:top;">headers</td><td style="vertical-align:top;">:</td><td><div><table><tr><td style="font-weight:bold;vertical-align:top;">X-Powered-By</td><td style="vertical-align:top;">:</td><td><div>web2py</div></td></tr></table></div></td></tr><tr><td style="font-weight:bold;vertical-align:top;">logo</td><td style="vertical-align:top;">:</td><td><div><a class="navbar-brand" href="http://www.web2py.com/" id="web2py-logo"><b>web<span>2</span>py</b>&trade;&nbsp;</a></div></td></tr><tr><td style="font-weight:bold;vertical-align:top;">menu</td><td style="vertical-align:top;">:</td><td><div><table><tr><td><div><table><tr><td><div>Home</div></td></tr><tr><td><div>False</div></td></tr><tr><td><div>/AstroChat/default/index</div></td></tr><tr><td><div><table></table></div></td></tr></table></div></td></tr><tr><td><div><table><tr><td><div>My Sites</div></td></tr><tr><td><div>False</div></td></tr><tr><td><div>/admin/default/site</div></td></tr></table></div></td></tr><tr><td><div><table><tr><td><div>Sample Menu 1</div></td></tr><tr><td><div>False</div></td></tr><tr><td><div>#</div></td></tr><tr><td><div><table><tr><td><div><table><tr><td><div>Entry1</div></td></tr><tr><td><div>False</div></td></tr><tr><td><div>/AstroChat/default/entry1</div></td></tr></table></div></td></tr><tr><td><div><table><tr><td><div>Entry2</div></td></tr><tr><td><div>False</div></td></tr><tr><td><div>/AstroChat/default/entry2</div></td></tr></table></div></td></tr></table></div></td></tr></table></div></td></tr><tr><td><div><table><tr><td><div>Sample Menu 2</div></td></tr><tr><td><div>False</div></td></tr><tr><td><div>/AstroChat/default/index</div></td></tr></table></div></td></tr></table></div></td></tr><tr><td style="font-weight:bold;vertical-align:top;">meta</td><td style="vertical-align:top;">:</td><td><div><table><tr><td style="font-weight:bold;vertical-align:top;">author</td><td style="vertical-align:top;">:</td><td><div>Your Name &lt;you@example.com&gt;</div></td></tr><tr><td style="font-weight:bold;vertical-align:top;">description</td><td style="vertical-align:top;">:</td><td><div>a cool new app</div></td></tr><tr><td style="font-weight:bold;vertical-align:top;">generator</td><td style="vertical-align:top;">:</td><td><div>Web2py Web Framework</div></td></tr><tr><td style="font-weight:bold;vertical-align:top;">keywords</td><td style="vertical-align:top;">:</td><td><div><table><tr><td><div>web2py</div></td></tr><tr><td><div>python</div></td></tr><tr><td><div>framework</div></td></tr></table></div></td></tr></table></div></td></tr><tr><td style="font-weight:bold;vertical-align:top;">models_to_run</td><td style="vertical-align:top;">:</td><td><div><table><tr><td><div>^\\w+\\.py$</div></td></tr><tr><td><div>^default/\\w+\\.py$</div></td></tr><tr><td><div>^default/edit_profile/\\w+\\.py$</div></td></tr></table></div></td></tr><tr><td style="font-weight:bold;vertical-align:top;">postprocessing</td><td style="vertical-align:top;">:</td><td><div><table></table></div></td></tr><tr><td style="font-weight:bold;vertical-align:top;">session_client</td><td style="vertical-align:top;">:</td><td><div>127.0.0.1</div></td></tr><tr><td style="font-weight:bold;vertical-align:top;">session_cookie_compression_level</td><td style="vertical-align:top;">:</td><td><div>None</div></td></tr><tr><td style="font-weight:bold;vertical-align:top;">session_cookie_expires</td><td style="vertical-align:top;">:</td><td><div>None</div></td></tr><tr><td style="font-weight:bold;vertical-align:top;">session_data_name</td><td style="vertical-align:top;">:</td><td><div>session_data_astrochat</div></td></tr><tr><td style="font-weight:bold;vertical-align:top;">session_db_record_id</td><td style="vertical-align:top;">:</td><td><div>15L</div></td></tr><tr><td style="font-weight:bold;vertical-align:top;">session_db_table</td><td style="vertical-align:top;">:</td><td><div>&lt;Table web2py_session_AstroChat (id, locked, client_ip, created_datetime, modified_datetime, unique_key, session_data)&gt;</div></td></tr><tr><td style="font-weight:bold;vertical-align:top;">session_db_unique_key</td><td style="vertical-align:top;">:</td><td><div>d5203ab2-26d8-4dce-8a7c-c4ca180ca8b5</div></td></tr><tr><td style="font-weight:bold;vertical-align:top;">session_file</td><td style="vertical-align:top;">:</td><td><div>None</div></td></tr><tr><td style="font-weight:bold;vertical-align:top;">session_filename</td><td style="vertical-align:top;">:</td><td><div>/home/matthew/Classes/CS183/project/web2py/applications/AstroChat/sessions/127.0.0.1-b3bda1f1-353b-4c79-bc24-8243873fda91</div></td></tr><tr><td style="font-weight:bold;vertical-align:top;">session_hash</td><td style="vertical-align:top;">:</td><td><div>e3bee2955db9051c452ee19f51a6189c</div></td></tr><tr><td style="font-weight:bold;vertical-align:top;">session_id</td><td style="vertical-align:top;">:</td><td><div>15:d5203ab2-26d8-4dce-8a7c-c4ca180ca8b5</div></td></tr><tr><td style="font-weight:bold;vertical-align:top;">session_id_name</td><td style="vertical-align:top;">:</td><td><div>session_id_astrochat</div></td></tr><tr><td style="font-weight:bold;vertical-align:top;">session_masterapp</td><td style="vertical-align:top;">:</td><td><div>AstroChat</div></td></tr><tr><td style="font-weight:bold;vertical-align:top;">session_new</td><td style="vertical-align:top;">:</td><td><div>False</div></td></tr><tr><td style="font-weight:bold;vertical-align:top;">session_storage_type</td><td style="vertical-align:top;">:</td><td><div>db</div></td></tr><tr><td style="font-weight:bold;vertical-align:top;">status</td><td style="vertical-align:top;">:</td><td><div>200</div></td></tr><tr><td style="font-weight:bold;vertical-align:top;">subtitle</td><td style="vertical-align:top;">:</td><td><div></div></td></tr><tr><td style="font-weight:bold;vertical-align:top;">title</td><td style="vertical-align:top;">:</td><td><div>Astrochat</div></td></tr><tr><td style="font-weight:bold;vertical-align:top;">view</td><td style="vertical-align:top;">:</td><td><div>default/edit_profile.html</div></td></tr></table></div>'
tRp124
sS'locals'
p125
(dp126
S'Service'
p127
S"<class 'gluon.tools.Service'>"
p128
sS'FORMAT'
p129
S"'%(asctime)s %(levelname)s %(process)s %(thread)s %(funcName)s():%(lineno)d %(message)s'"
p130
sS'PY2'
p131
S'True'
p132
sS'OBJECT'
p133
S"<class 'gluon.html.OBJECT'>"
p134
sS'SQLDB'
p135
S"<class 'pydal.base.DAL'>"
p136
sg117
S"<Storage {'_auth_next': None, 'flash': None, 'au...gin]': ['bef3cc91-06d3-4a6d-9c82-05cb50b670dc']}>"
p137
sS'LINK'
p138
S"<class 'gluon.html.LINK'>"
p139
sS'BR'
p140
S"<class 'gluon.html.BR'>"
p141
sS'local_import'
p142
S'<function <lambda>>'
p143
sS'OPTGROUP'
p144
S"<class 'gluon.html.OPTGROUP'>"
p145
sS'__package__'
p146
S'None'
p147
sS'PRE'
p148
S"<class 'gluon.html.PRE'>"
p149
sS'IS_INT_IN_RANGE'
p150
S"<class 'gluon.validators.IS_INT_IN_RANGE'>"
p151
sS'to_bytes'
p152
S'<function to_bytes>'
p153
sS'IS_LOWER'
p154
S"<class 'gluon.validators.IS_LOWER'>"
p155
sS'IS_STRONG'
p156
S"<class 'gluon.validators.IS_STRONG'>"
p157
sS'cache'
p158
S'<gluon.cache.Cache object>'
p159
sS'IS_IN_DB'
p160
S"<class 'gluon.validators.IS_IN_DB'>"
p161
sS'TAG'
p162
S'<gluon.html.__TAG__ object>'
p163
sS'SQLField'
p164
S"<class 'pydal.objects.Field'>"
p165
sS'mail'
p166
S'<gluon.tools.Mail object>'
p167
sS'logger'
p168
S'<logging.Logger object>'
p169
sS'BODY'
p170
S"<class 'gluon.html.BODY'>"
p171
sS'IS_DATE_IN_RANGE'
p172
S"<class 'gluon.validators.IS_DATE_IN_RANGE'>"
p173
sS'IFRAME'
p174
S"<class 'gluon.html.IFRAME'>"
p175
sS'URL'
p176
S'<function URL>'
p177
sS'__file__'
p178
S"'/home/matthew/Classes/CS183/project/web2py/applications/AstroChat/views/default/edit_profile.html'"
p179
sS'db'
p180
S'<DAL uri="sqlite://storage.sqlite">'
p181
sS'auth'
p182
S'<gluon.tools.Auth object>'
p183
sS'P'
S"<class 'gluon.html.P'>"
p184
sS'TFOOT'
p185
S"<class 'gluon.html.TFOOT'>"
p186
sS'iteritems'
p187
S'<function <lambda>>'
p188
sS'XHTML'
p189
S"<class 'gluon.html.XHTML'>"
p190
sS'datetime'
p191
S"<module 'datetime' (built-in)>"
p192
sS'ON'
p193
g132
sS'OL'
p194
S"<class 'gluon.html.OL'>"
p195
sS'TEXTAREA'
p196
S"<class 'gluon.html.TEXTAREA'>"
p197
sS'MENU'
p198
S"<class 'gluon.html.MENU'>"
p199
sS'IS_IMAGE'
p200
S"<class 'gluon.validators.IS_IMAGE'>"
p201
sS'EM'
p202
S"<class 'gluon.html.EM'>"
p203
sS'CODE'
p204
S"<class 'gluon.html.CODE'>"
p205
sS'HTTP'
p206
S"<class 'gluon.http.HTTP'>"
p207
sS'HR'
p208
S"<class 'gluon.html.HR'>"
p209
sS'IS_DATETIME'
p210
S"<class 'gluon.validators.IS_DATETIME'>"
p211
sS'reduce'
p212
S'<built-in function reduce>'
p213
sS'STYLE'
p214
S"<class 'gluon.html.STYLE'>"
p215
sS'LABEL'
p216
S"<class 'gluon.html.LABEL'>"
p217
sS'CLEANUP'
p218
S"<class 'gluon.validators.CLEANUP'>"
p219
sS'plugins'
p220
S'<gluon.tools.PluginManager object>'
p221
sS'SELECT'
p222
S"<class 'gluon.html.SELECT'>"
p223
sS'CENTER'
p224
S"<class 'gluon.html.CENTER'>"
p225
sS'Auth'
p226
S"<class 'gluon.tools.Auth'>"
p227
sS'DEVELOPMENT_MENU'
p228
g132
sS'__builtins__'
p229
S"{'ArithmeticError': <type 'exceptions.ArithmeticError'>, 'AssertionError': <type 'exceptions.AssertionError'>, 'AttributeError': <type 'exceptions.AttributeError'>, 'BaseException': <type 'exceptions.BaseException'>, 'BufferError': <type 'exceptions.BufferError'>, 'BytesWarning': <type 'exceptions.BytesWarning'>, 'DeprecationWarning': <type 'exceptions.DeprecationWarning'>, 'EOFError': <type 'exceptions.EOFError'>, 'Ellipsis': Ellipsis, 'EnvironmentError': <type 'exceptions.EnvironmentError'>, ...}"
p230
sS'HTML'
p231
S"<class 'gluon.html.HTML'>"
p232
sS'SQLFORM'
p233
S"<class 'gluon.sqlhtml.SQLFORM'>"
p234
sS'LOAD'
p235
S'<function LOAD>'
p236
sS'redirect'
p237
S'<function redirect>'
p238
sS'FIELDSET'
p239
S"<class 'gluon.html.FIELDSET'>"
p240
sS'IS_EQUAL_TO'
p241
S"<class 'gluon.validators.IS_EQUAL_TO'>"
p242
sS'embed64'
p243
S'<function embed64>'
p244
sS'IS_LIST_OF'
p245
S"<class 'gluon.validators.IS_LIST_OF'>"
p246
sS'INPUT'
p247
S"<class 'gluon.html.INPUT'>"
p248
sS'EMBED'
p249
S"<class 'gluon.html.EMBED'>"
p250
sS'_'
S'<function _>'
p251
sS'logging'
p252
S"<module 'logging' from '/usr/lib/python2.7/logging/__init__.pyc'>"
p253
sS'myconf'
p254
S"{'forms': {'formstyle': 'bootstrap3_inline', 'se...': {'names': 'localhost:*, 127.0.0.1:*, *:*, *'}}"
p255
sS'H2'
p256
S"<class 'gluon.html.H2'>"
p257
sS'H3'
p258
S"<class 'gluon.html.H3'>"
p259
sS'AppConfig'
p260
S'<function AppConfig>'
p261
sS'H1'
p262
S"<class 'gluon.html.H1'>"
p263
sS'H6'
p264
S"<class 'gluon.html.H6'>"
p265
sS'H4'
p266
S"<class 'gluon.html.H4'>"
p267
sS'H5'
p268
S"<class 'gluon.html.H5'>"
p269
sS'UL'
p270
S"<class 'gluon.html.UL'>"
p271
sS'IS_UPPER'
p272
S"<class 'gluon.validators.IS_UPPER'>"
p273
sS'xmlescape'
p274
S'<function xmlescape>'
p275
sS'IS_TIME'
p276
S"<class 'gluon.validators.IS_TIME'>"
p277
sS'OPTION'
p278
S"<class 'gluon.html.OPTION'>"
p279
sS'TITLE'
p280
S"<class 'gluon.html.TITLE'>"
p281
sS'CRYPT'
p282
S"<class 'gluon.validators.CRYPT'>"
p283
sS'IS_EMPTY_OR'
p284
S"<class 'gluon.validators.IS_EMPTY_OR'>"
p285
sS'MARKMIN'
p286
S"<class 'gluon.html.MARKMIN'>"
p287
sS'__name__'
p288
S"'__restricted__'"
p289
sS'table'
p290
S"<Row {'bio': 'hiya', 'birthday': datetime.date(2...il': 'hi@gmail.com', 'banner': 'Blue', 'id': 6L}>"
p291
sS'STRONG'
p292
S"<class 'gluon.html.STRONG'>"
p293
sS'COL'
p294
S"<class 'gluon.html.COL'>"
p295
sS'service'
p296
S'<gluon.tools.Service object>'
p297
sS'SCRIPT'
p298
S"<class 'gluon.html.SCRIPT'>"
p299
sS'TABLE'
p300
S"<class 'gluon.html.TABLE'>"
p301
sS'IS_IPV4'
p302
S"<class 'gluon.validators.IS_IPV4'>"
p303
sS'IS_LENGTH'
p304
S"<class 'gluon.validators.IS_LENGTH'>"
p305
sS'IS_IPV6'
p306
S"<class 'gluon.validators.IS_IPV6'>"
p307
sS'XML'
p308
S"<class 'gluon.html.XML'>"
p309
sS'B'
S"<class 'gluon.html.B'>"
p310
sS'IMG'
p311
S"<class 'gluon.html.IMG'>"
p312
sS'SQLTABLE'
p313
S"<class 'gluon.sqlhtml.SQLTABLE'>"
p314
sS'IS_MATCH'
p315
S"<class 'gluon.validators.IS_MATCH'>"
p316
sS'IS_ALPHANUMERIC'
p317
S"<class 'gluon.validators.IS_ALPHANUMERIC'>"
p318
sS'get_user_email'
p319
S'<function get_user_email>'
p320
sS'SPAN'
p321
S"<class 'gluon.html.SPAN'>"
p322
sS'IS_JSON'
p323
S"<class 'gluon.validators.IS_JSON'>"
p324
sS'IS_IPADDRESS'
p325
S"<class 'gluon.validators.IS_IPADDRESS'>"
p326
sS'IS_SLUG'
p327
S"<class 'gluon.validators.IS_SLUG'>"
p328
sS'BEAUTIFY'
p329
S"<class 'gluon.html.BEAUTIFY'>"
p330
sS'META'
p331
S"<class 'gluon.html.META'>"
p332
sS'BUTTON'
p333
S"<class 'gluon.html.BUTTON'>"
p334
sS'IS_DATE'
p335
S"<class 'gluon.validators.IS_DATE'>"
p336
sS'IS_EMAIL'
p337
S"<class 'gluon.validators.IS_EMAIL'>"
p338
sS'IS_NOT_EMPTY'
p339
S"<class 'gluon.validators.IS_NOT_EMPTY'>"
p340
sS'xrange'
p341
S"<type 'xrange'>"
p342
sS'TBODY'
p343
S"<class 'gluon.html.TBODY'>"
p344
sS'CAT'
p345
S"<class 'gluon.html.CAT'>"
p346
sS'Field'
p347
S"<class 'pydal.objects.Field'>"
p348
sS'IS_LIST_OF_EMAILS'
p349
S"<class 'gluon.validators.IS_LIST_OF_EMAILS'>"
p350
sg58
S"<Storage {'_vars': <Storage {}>, 'function': 'ed...s/CS183/project/web2py/applications/AstroChat/'}>"
p351
sS'DIV'
p352
S"<class 'gluon.html.DIV'>"
p353
sS'LEGEND'
p354
S"<class 'gluon.html.LEGEND'>"
p355
sS'to_native'
p356
S'<function to_native>'
p357
sS'COLGROUP'
p358
S"<class 'gluon.html.COLGROUP'>"
p359
sS'DAL'
p360
S"<class 'pydal.base.DAL'>"
p361
sS'ASSIGNJS'
p362
S'<function ASSIGNJS>'
p363
sS'TR'
p364
S"<class 'gluon.html.TR'>"
p365
sS'LI'
p366
S"<class 'gluon.html.LI'>"
p367
sS'TH'
p368
S"<class 'gluon.html.TH'>"
p369
sS'TD'
p370
S"<class 'gluon.html.TD'>"
p371
sS'PluginManager'
p372
S"<class 'gluon.tools.PluginManager'>"
p373
sS'IS_URL'
p374
S"<class 'gluon.validators.IS_URL'>"
p375
sS'A'
S"<class 'gluon.html.A'>"
p376
sS'HEAD'
p377
S"<class 'gluon.html.HEAD'>"
p378
sS'IS_DATETIME_IN_RANGE'
p379
S"<class 'gluon.validators.IS_DATETIME_IN_RANGE'>"
p380
sS'FORM'
p381
S"<class 'gluon.html.FORM'>"
p382
sS'I'
S"<class 'gluon.html.I'>"
p383
sS'sys'
p384
S"<module 'sys' (built-in)>"
p385
sS'IS_NOT_IN_DB'
p386
S"<class 'gluon.validators.IS_NOT_IN_DB'>"
p387
sg123
S"<Storage {'body': <cStringIO.StringO object at 0...ion_data)>, 'view': 'default/edit_profile.html'}>"
p388
sS'THEAD'
p389
S"<class 'gluon.html.THEAD'>"
p390
sS'ANY_OF'
p391
S"<class 'gluon.validators.ANY_OF'>"
p392
sS'IS_NULL_OR'
p393
S"<class 'gluon.validators.IS_EMPTY_OR'>"
p394
sS'IS_FLOAT_IN_RANGE'
p395
S"<class 'gluon.validators.IS_FLOAT_IN_RANGE'>"
p396
sS'IS_EXPR'
p397
S"<class 'gluon.validators.IS_EXPR'>"
p398
sS'T'
S'<gluon.languages.translator object>'
p399
sS'IS_IN_SET'
p400
S"<class 'gluon.validators.IS_IN_SET'>"
p401
sS'IS_UPLOAD_FILENAME'
p402
S"<class 'gluon.validators.IS_UPLOAD_FILENAME'>"
p403
sS'TT'
p404
S"<class 'gluon.html.TT'>"
p405
sS'IS_DECIMAL_IN_RANGE'
p406
S"<class 'gluon.validators.IS_DECIMAL_IN_RANGE'>"
p407
sssS'traceback'
p408
S'Traceback (most recent call last):\n  File "/home/matthew/Classes/CS183/project/web2py/gluon/restricted.py", line 219, in restricted\n    exec(ccode, environment)\n  File "/home/matthew/Classes/CS183/project/web2py/applications/AstroChat/views/default/edit_profile.html", line 64, in <module>\n    placeholder = "description..."></textarea>\nNameError: name \'fox_background\' is not defined\n'
p409
s.