(dp1
S'output'
p2
S"<type 'exceptions.AttributeError'> 'NoneType' object has no attribute 'birthday'"
p3
sS'layer'
p4
S'C:\\Users\\Michelle\\Documents\\web2py\\web2py\\applications\\AstroChat\\views\\default/index.html'
p5
sS'code'
p6
S'response.write(\'<html>\\n  <head>\\n    <meta charset="utf-8">\\n    <meta http-equiv="X-UA-Compatible" content="IE=edge,chrome=1">\\n    <meta name="viewport" content="width=device-width, initial-scale=1.0" />\\n    <meta name="apple-mobile-web-app-capable" content="yes" />\\n    <link href="\', escape=False)\nresponse.write(URL(\'static\',\'css/stupid.css\'))\nresponse.write(\'" rel="stylesheet" type="text/css"/>\\n    <link href="\', escape=False)\nresponse.write(URL(\'static\',\'css/custom.css\'))\nresponse.write(\'" rel="stylesheet" type="text/css"/>\\n    <link href="\', escape=False)\nresponse.write(URL(\'static\',\'css/calendar.css\'))\nresponse.write(\'" rel="stylesheet" type="text/css"/>\\n    <link href="\', escape=False)\nresponse.write(URL(\'static\',\'css/web2py.css\'))\nresponse.write(\'" rel="stylesheet" type="text/css"/>\\n    <link href="\', escape=False)\nresponse.write(URL(\'static\',\'css/myapp.css\'))\nresponse.write(\'" rel="stylesheet" type="text/css"/>\\n    <link href="\', escape=False)\nresponse.write(URL(\'static\',\'css/edit_profile.css\'))\nresponse.write(\'" rel="stylesheet" type="text/css"/>\\n    <link rel="stylesheet" href="\', escape=False)\nresponse.write(URL(\'static\', \'font-awesome-4.6.3/css/font-awesome.min.css\'))\nresponse.write(\'">\\n    \', escape=False)\nresponse.write(\'<script type="text/javascript"><!--\\n    // These variables are used by the web2py_ajax_init function in web2py_ajax.js (which is loaded below).\\n    var w2p_ajax_confirm_message = "\', escape=False)\nresponse.write(T(\'Are you sure you want to delete this object?\'))\nresponse.write(\'";\\n    var w2p_ajax_disable_with_message = "\', escape=False)\nresponse.write(T(\'Working...\'))\nresponse.write(\'";\\n    var w2p_ajax_date_format = "\', escape=False)\nresponse.write(T(\'%Y-%m-%d\'))\nresponse.write(\'";\\n    var w2p_ajax_datetime_format = "\', escape=False)\nresponse.write(T(\'%Y-%m-%d %H:%M:%S\'))\nresponse.write(\'";\\n    var ajax_error_500 = \\\'\', escape=False)\nresponse.write(T.M(\'An error occured, please [[reload %s]] the page\') % URL(args=request.args, vars=request.get_vars))\nresponse.write("\'\\n    //--></script>\\n", escape=False)\nresponse.files.insert(0,URL(\'static\',\'js/jquery.js\'))\nresponse.files.insert(1,URL(\'static\',\'css/calendar.css\'))\nresponse.files.insert(2,URL(\'static\',\'js/calendar.js\'))\nresponse.files.insert(3,URL(\'static\',\'js/web2py.js\'))\nresponse.include_meta()\nresponse.include_files()\nresponse.write(\'\\n\', escape=False)\nresponse.write(\'\\n  </head>\\n  <body>\\n    \', escape=False)\nif response.flash:\n    response.write(\'\\n    <div class="w2p_flash">\\n      \', escape=False)\n    response.write(response.flash)\n    response.write(\'\\n    </div>\\n    \', escape=False)\n    pass\nresponse.write(\'\\n    <header class="black padded">\\n      <div class="container middle max900">\\n        <div class="fill middle">\\n          <label class="ham padded fa fa-bars" for="menu"></label>\\n          <div class="burger accordion">\\n            <input type="checkbox" id="menu"/>\\n            \', escape=False)\nresponse.write(MENU(response.menu,_class=\'menu\'))\nresponse.write(\'\\n            <ul class="menu right">\\n              <li>\\n                \', escape=False)\nresponse.write(auth.navbar(mode=\'dropdown\'))\nresponse.write(\'\\n              </li>\\n            </ul>\\n          </div>\\n        </div>\\n      </div>\\n    </header>\\n    <main class="white">\\n      \', escape=False)\nresponse.write(\'\\n\\n\', escape=False)\nresponse.write(\'\\n\', escape=False)\nresponse.write(\'\\n\\n<div class="main_content">\\n\\t\', escape=False)\nif auth.user is None:\n    response.write(\'\\n\\t<h1 class="center">Welcome to AstroChat!</h1>\\n\\t<div class="topwebpage container">\\n\\t\\t<div class="third buttons">\\n    \\t\\t<a href="\', escape=False)\n    response.write(URL(\'default\', \'user\'))\n    response.write(\'" class="btn large">Login</a>\\n    \\t\\t<br>\\n    \\t\\t<a href="\', escape=False)\n    response.write(URL(\'default\', \'user\', args=\'register\', vars={\'_next\': request.vars._next} if request.vars._next else None))\n    response.write(\'" class="btn large">Sign Up</a>\\n    \\t</div>\\n    \\t<div class="twothirds about_astrochat">\\n    \\t\\t<h3 class="center">About Astrochat</h3>\\n    \\t\\t<tbody class=\\\'middle\\\'>&nbsp;&nbsp;&nbsp;&nbsp;&nbsp;&nbsp;&nbsp;&nbsp;Description and over of Astrochat. Blah blah blah, just to take up space. Astrochat Astrochat Astrochat AstrochatAstrochat AstrochatAstrochat AstrochatAstrochat AstrochatAstrochat AstrochatAstrochat AstrochatAstrochat AstrochatAstrochat AstrochatAstrochat AstrochatAstrochat AstrochatAstrochat AstrochatAstrochat AstrochatAstrochat AstrochatAstrochat Astrochat</tbody>\\n    \\t</div>\\n    </div> \\n    <br><br>\\n    <br><br>\\n    <div class="bottomwebpage container">\\n    \\t<h3 class="center">Check out your horoscope for today below:</h3>\\n    \\t<br><br>\\n    \\t<iframe src="https://www.horoscope.com/us/index.aspx" scrolling="no" style="height:100%; width:100%;"> \\n    \\t\\t<p>Your browser does not support iframes.</p>\\n    \\t</iframe>\\n    </div>\\n\\n\\n\\n\\t\', escape=False)\nelse:\n    response.write(\'\\n    <h1>Welcome to AstroChat!</h1>\\n\\n\\n\\n  \\t<div class="profile_btn">\\n    \\t<a class="btn rounded" href="\', escape=False)\n    response.write(URL(\'default\',\'edit_profile\'))\n    response.write(\'">\\n      \\t\\t<i class="fa fa-edit fa-lg"></i>\\n    \\t</a>\\n        <a class="btn rounded" href="\', escape=False)\n    response.write(URL(\'default\', \'about_me\'))\n    response.write(\'">\\n            <i class="fa fa-edge">About Me</i>\\n        </a>\\n  \\t</div>\\n    <div class="bday">\\n        \', escape=False)\n    if curruser.birthday is None:\n        response.write(\'\\n                <h3>Please edit your profile and input your birthday</h3>\\n        \', escape=False)\n    else:\n        response.write(\'\\n                <h3>Your birthday is: \', escape=False)\n        response.write(curruser.birthday)\n        response.write(\'. Your sign is: \', escape=False)\n        response.write(sign)\n        response.write(\'</h3>\\n                <h2>Here is your yearly horoscope:</h2>\\n                \', escape=False)\n        response.write(year_horoscope)\n        response.write(\'\\n                <h2>Here is your monthly horoscope:</h2>\\n                \', escape=False)\n        response.write(month_horoscope)\n        response.write(\'\\n                <h2>Here is your weekly horoscope:</h2>\\n                \', escape=False)\n        response.write(week_horoscope)\n        response.write(\'\\n                <h2>Here is your daily horoscope: </h2>\\n                \', escape=False)\n        response.write(day_horoscope)\n        response.write(\'\\n\\n        \', escape=False)\n        pass\n    response.write(\'\\n    </div>\\n    \', escape=False)\n    pass\nresponse.write(\'\\n\\n</div>\\n\\n\', escape=False)\nresponse.write(\'\\n    </main>\\n    <footer class="black">\\n      <div class="silver center padded social">\\n        <a class="fa fa-facebook" href="https://www.facebook.com/sharer/sharer.php?u={url}"></a>\\n        <a class="fa fa-twitter" href="https://twitter.com/home?status={url}"></a>\\n        <a class="fa fa-google" href="https://plus.google.com/share?url={url}"></a>\\n      </div>\\n      <div class="container padded max900">\\n        <div class="fill">\\n          Copyright @ 2016\\n        </div>\\n      </div>\\n    </footer>\\n  </body>\\n  <script src="\', escape=False)\nresponse.write(URL(\'static\',\'js/marked.min.js\'))\nresponse.write(\'"></script>\\n  <script src="\', escape=False)\nresponse.write(URL(\'static\',\'js/vue.min.js\'))\nresponse.write(\'"></script>\\n  \', escape=False)\nresponse.write("\\n  <script>\\n    jQuery(\'.social a\').each(function(){var t=jQuery(this); t.attr(\'href\',t.attr(\'href\').replace(\'{url}\',encodeURIComponent(window.location.href)));});\\n  </script>\\n</html>\\n", escape=False)'
p7
sS'snapshot'
p8
(dp9
S'exception'
p10
(dp11
S'__getslice__'
p12
S"<method-wrapper '__getslice__' of exceptions.AttributeError object>"
p13
sS'__str__'
p14
S"<method-wrapper '__str__' of exceptions.AttributeError object>"
p15
sS'__reduce__'
p16
S'<built-in method __reduce__ of exceptions.AttributeError object>'
p17
sS'__dict__'
p18
S'{}'
p19
sS'message'
p20
S'"\'NoneType\' object has no attribute \'birthday\'"'
p21
sS'__sizeof__'
p22
S'<built-in method __sizeof__ of exceptions.AttributeError object>'
p23
sS'__init__'
p24
S"<method-wrapper '__init__' of exceptions.AttributeError object>"
p25
sS'__setattr__'
p26
S"<method-wrapper '__setattr__' of exceptions.AttributeError object>"
p27
sS'__reduce_ex__'
p28
S'<built-in method __reduce_ex__ of exceptions.AttributeError object>'
p29
sS'__new__'
p30
S'<built-in method __new__ of type object>'
p31
sS'__format__'
p32
S'<built-in method __format__ of exceptions.AttributeError object>'
p33
sS'__class__'
p34
S"<type 'exceptions.AttributeError'>"
p35
sS'__doc__'
p36
S"'Attribute not found.'"
p37
sS'__getitem__'
p38
S"<method-wrapper '__getitem__' of exceptions.AttributeError object>"
p39
sS'__setstate__'
p40
S'<built-in method __setstate__ of exceptions.AttributeError object>'
p41
sS'__getattribute__'
p42
S"<method-wrapper '__getattribute__' of exceptions.AttributeError object>"
p43
sS'args'
p44
S'("\'NoneType\' object has no attribute \'birthday\'",)'
p45
sS'__subclasshook__'
p46
S'<built-in method __subclasshook__ of type object>'
p47
sS'__unicode__'
p48
S'<built-in method __unicode__ of exceptions.AttributeError object>'
p49
sS'__delattr__'
p50
S"<method-wrapper '__delattr__' of exceptions.AttributeError object>"
p51
sS'__repr__'
p52
S"<method-wrapper '__repr__' of exceptions.AttributeError object>"
p53
sS'__hash__'
p54
S"<method-wrapper '__hash__' of exceptions.AttributeError object>"
p55
ssS'evalue'
p56
S"'NoneType' object has no attribute 'birthday'"
p57
sS'request'
p58
cgluon.html
XML_unpickle
p59
(S's\xf3_\x00\x00<div><table><tr><td style="font-weight:bold;vertical-align:top;">ajax</td><td style="vertical-align:top;">:</td><td><div>False</div></td></tr><tr><td style="font-weight:bold;vertical-align:top;">application</td><td style="vertical-align:top;">:</td><td><div>AstroChat</div></td></tr><tr><td style="font-weight:bold;vertical-align:top;">args</td><td style="vertical-align:top;">:</td><td><div><table></table></div></td></tr><tr><td style="font-weight:bold;vertical-align:top;">cid</td><td style="vertical-align:top;">:</td><td><div>None</div></td></tr><tr><td style="font-weight:bold;vertical-align:top;">client</td><td style="vertical-align:top;">:</td><td><div>127.0.0.1</div></td></tr><tr><td style="font-weight:bold;vertical-align:top;">controller</td><td style="vertical-align:top;">:</td><td><div>default</div></td></tr><tr><td style="font-weight:bold;vertical-align:top;">cookies</td><td style="vertical-align:top;">:</td><td><div><table><tr><td style="font-weight:bold;vertical-align:top;">session_id_admin</td><td style="vertical-align:top;">:</td><td><div>127.0.0.1-9f486894-3745-46d4-b81e-6ad453c52d71<table><tr><td style="font-weight:bold;vertical-align:top;">comment</td><td style="vertical-align:top;">:</td><td><div></div></td></tr><tr><td style="font-weight:bold;vertical-align:top;">domain</td><td style="vertical-align:top;">:</td><td><div></div></td></tr><tr><td style="font-weight:bold;vertical-align:top;">expires</td><td style="vertical-align:top;">:</td><td><div></div></td></tr><tr><td style="font-weight:bold;vertical-align:top;">httponly</td><td style="vertical-align:top;">:</td><td><div></div></td></tr><tr><td style="font-weight:bold;vertical-align:top;">max-age</td><td style="vertical-align:top;">:</td><td><div></div></td></tr><tr><td style="font-weight:bold;vertical-align:top;">path</td><td style="vertical-align:top;">:</td><td><div></div></td></tr><tr><td style="font-weight:bold;vertical-align:top;">secure</td><td style="vertical-align:top;">:</td><td><div></div></td></tr><tr><td style="font-weight:bold;vertical-align:top;">version</td><td style="vertical-align:top;">:</td><td><div></div></td></tr></table></div></td></tr><tr><td style="font-weight:bold;vertical-align:top;">session_id_astrochat</td><td style="vertical-align:top;">:</td><td><div>6:1a63743e-c703-4af9-bbe9-65f6806720ac<table><tr><td style="font-weight:bold;vertical-align:top;">comment</td><td style="vertical-align:top;">:</td><td><div></div></td></tr><tr><td style="font-weight:bold;vertical-align:top;">domain</td><td style="vertical-align:top;">:</td><td><div></div></td></tr><tr><td style="font-weight:bold;vertical-align:top;">expires</td><td style="vertical-align:top;">:</td><td><div></div></td></tr><tr><td style="font-weight:bold;vertical-align:top;">httponly</td><td style="vertical-align:top;">:</td><td><div></div></td></tr><tr><td style="font-weight:bold;vertical-align:top;">max-age</td><td style="vertical-align:top;">:</td><td><div></div></td></tr><tr><td style="font-weight:bold;vertical-align:top;">path</td><td style="vertical-align:top;">:</td><td><div></div></td></tr><tr><td style="font-weight:bold;vertical-align:top;">secure</td><td style="vertical-align:top;">:</td><td><div></div></td></tr><tr><td style="font-weight:bold;vertical-align:top;">version</td><td style="vertical-align:top;">:</td><td><div></div></td></tr></table></div></td></tr><tr><td style="font-weight:bold;vertical-align:top;">session_id_welcome</td><td style="vertical-align:top;">:</td><td><div>127.0.0.1-21bbf232-c298-444d-b20c-5e57f3cfb922<table><tr><td style="font-weight:bold;vertical-align:top;">comment</td><td style="vertical-align:top;">:</td><td><div></div></td></tr><tr><td style="font-weight:bold;vertical-align:top;">domain</td><td style="vertical-align:top;">:</td><td><div></div></td></tr><tr><td style="font-weight:bold;vertical-align:top;">expires</td><td style="vertical-align:top;">:</td><td><div></div></td></tr><tr><td style="font-weight:bold;vertical-align:top;">httponly</td><td style="vertical-align:top;">:</td><td><div></div></td></tr><tr><td style="font-weight:bold;vertical-align:top;">max-age</td><td style="vertical-align:top;">:</td><td><div></div></td></tr><tr><td style="font-weight:bold;vertical-align:top;">path</td><td style="vertical-align:top;">:</td><td><div></div></td></tr><tr><td style="font-weight:bold;vertical-align:top;">secure</td><td style="vertical-align:top;">:</td><td><div></div></td></tr><tr><td style="font-weight:bold;vertical-align:top;">version</td><td style="vertical-align:top;">:</td><td><div></div></td></tr></table></div></td></tr></table></div></td></tr><tr><td style="font-weight:bold;vertical-align:top;">env</td><td style="vertical-align:top;">:</td><td><div><table><tr><td style="font-weight:bold;vertical-align:top;">HTTP_ACCEPT</td><td style="vertical-align:top;">:</td><td><div>text/html,application/xhtml+xml,application/xml;q=0.9,image/webp,image/apng,*/*;q=0.8</div></td></tr><tr><td style="font-weight:bold;vertical-align:top;">HTTP_ACCEPT_ENCODING</td><td style="vertical-align:top;">:</td><td><div>gzip, deflate, br</div></td></tr><tr><td style="font-weight:bold;vertical-align:top;">HTTP_ACCEPT_LANGUAGE</td><td style="vertical-align:top;">:</td><td><div>en-US,en;q=0.9</div></td></tr><tr><td style="font-weight:bold;vertical-align:top;">HTTP_CACHE_CONTROL</td><td style="vertical-align:top;">:</td><td><div>max-age=0</div></td></tr><tr><td style="font-weight:bold;vertical-align:top;">HTTP_CONNECTION</td><td style="vertical-align:top;">:</td><td><div>keep-alive</div></td></tr><tr><td style="font-weight:bold;vertical-align:top;">HTTP_COOKIE</td><td style="vertical-align:top;">:</td><td><div>session_id_admin=127.0.0.1-9f486894-3745-46d4-b81e-6ad453c52d71; session_id_welcome=127.0.0.1-21bbf232-c298-444d-b20c-5e57f3cfb922; session_id_astrochat=&quot;6:1a63743e-c703-4af9-bbe9-65f6806720ac&quot;</div></td></tr><tr><td style="font-weight:bold;vertical-align:top;">HTTP_HOST</td><td style="vertical-align:top;">:</td><td><div>127.0.0.1:8000</div></td></tr><tr><td style="font-weight:bold;vertical-align:top;">HTTP_REFERER</td><td style="vertical-align:top;">:</td><td><div>http://127.0.0.1:8000/AstroChat/default/user/register</div></td></tr><tr><td style="font-weight:bold;vertical-align:top;">HTTP_UPGRADE_INSECURE_REQUESTS</td><td style="vertical-align:top;">:</td><td><div>1</div></td></tr><tr><td style="font-weight:bold;vertical-align:top;">HTTP_USER_AGENT</td><td style="vertical-align:top;">:</td><td><div>Mozilla/5.0 (Windows NT 10.0; Win64; x64) AppleWebKit/537.36 (KHTML, like Gecko) Chrome/66.0.3359.181 Safari/537.36</div></td></tr><tr><td style="font-weight:bold;vertical-align:top;">PATH_INFO</td><td style="vertical-align:top;">:</td><td><div>/AstroChat/default/index</div></td></tr><tr><td style="font-weight:bold;vertical-align:top;">QUERY_STRING</td><td style="vertical-align:top;">:</td><td><div></div></td></tr><tr><td style="font-weight:bold;vertical-align:top;">REMOTE_ADDR</td><td style="vertical-align:top;">:</td><td><div>127.0.0.1</div></td></tr><tr><td style="font-weight:bold;vertical-align:top;">REMOTE_PORT</td><td style="vertical-align:top;">:</td><td><div>57931</div></td></tr><tr><td style="font-weight:bold;vertical-align:top;">REQUEST_METHOD</td><td style="vertical-align:top;">:</td><td><div>GET</div></td></tr><tr><td style="font-weight:bold;vertical-align:top;">SCRIPT_NAME</td><td style="vertical-align:top;">:</td><td><div></div></td></tr><tr><td style="font-weight:bold;vertical-align:top;">SERVER_NAME</td><td style="vertical-align:top;">:</td><td><div>JAMESM12</div></td></tr><tr><td style="font-weight:bold;vertical-align:top;">SERVER_PORT</td><td style="vertical-align:top;">:</td><td><div>8000</div></td></tr><tr><td style="font-weight:bold;vertical-align:top;">SERVER_PROTOCOL</td><td style="vertical-align:top;">:</td><td><div>HTTP/1.1</div></td></tr><tr><td style="font-weight:bold;vertical-align:top;">SERVER_SOFTWARE</td><td style="vertical-align:top;">:</td><td><div>Rocket 1.2.6</div></td></tr><tr><td style="font-weight:bold;vertical-align:top;">app_folders</td><td style="vertical-align:top;">:</td><td><div>set([&#x27;C:\\\\Users\\\\Michelle\\\\Documents\\\\web2py\\\\web2py\\\\applications\\\\welcome\\\\&#x27;, &#x27;C:\\\\Users\\\\Michelle\\\\Documents\\\\web2py\\\\web2py\\\\applications\\\\admin\\\\&#x27;, &#x27;C:\\\\Users\\\\Michelle\\\\Documents\\\\web2py\\\\web2py\\\\applications\\\\AstroChat\\\\&#x27;])</div></td></tr><tr><td style="font-weight:bold;vertical-align:top;">applications_parent</td><td style="vertical-align:top;">:</td><td><div>C:\\Users\\Michelle\\Documents\\web2py\\web2py</div></td></tr><tr><td style="font-weight:bold;vertical-align:top;">cmd_args</td><td style="vertical-align:top;">:</td><td><div><table></table></div></td></tr><tr><td style="font-weight:bold;vertical-align:top;">cmd_options</td><td style="vertical-align:top;">:</td><td><div>&lt;Values at 0x428b4c8: {&#x27;verbose&#x27;: False, &#x27;ip&#x27;: &#x27;127.0.0.1&#x27;, &#x27;debuglevel&#x27;: 30, &#x27;with_scheduler&#x27;: False, &#x27;shutdown_timeout&#x27;: 5, &#x27;taskbar&#x27;: False, &#x27;with_coverage&#x27;: False, &#x27;pid_filename&#x27;: &#x27;httpserver.pid&#x27;, &#x27;maxthreads&#x27;: None, &#x27;softcron&#x27;: False, &#x27;server_name&#x27;: &#x27;JAMESM12&#x27;, &#x27;bpython&#x27;: False, &#x27;nogui&#x27;: False, &#x27;port&#x27;: 8000, &#x27;print_errors&#x27;: False, &#x27;extcron&#x27;: False, &#x27;runcron&#x27;: False, &#x27;run_system_tests&#x27;: False, &#x27;test&#x27;: None, &#x27;folder&#x27;: &#x27;C:\\\\Users\\\\Michelle\\\\Documents\\\\web2py\\\\web2py&#x27;, &#x27;config&#x27;: &#x27;&#x27;, &#x27;minthreads&#x27;: None, &#x27;shell&#x27;: None, &#x27;run&#x27;: &#x27;&#x27;, &#x27;log_filename&#x27;: &#x27;httpserver.log&#x27;, &#x27;profiler_dir&#x27;: None, &#x27;args&#x27;: [&#x27;&#x27;], &#x27;socket_timeout&#x27;: 5, &#x27;ssl_ca_certificate&#x27;: None, &#x27;scheduler&#x27;: None, &#x27;interfaces&#x27;: None, &#x27;ssl_private_key&#x27;: &#x27;&#x27;, &#x27;gae&#x27;: None, &#x27;password&#x27;: &#x27;******&#x27;, &#x27;request_queue_size&#x27;: 5, &#x27;ssl_certificate&#x27;: &#x27;&#x27;, &#x27;cronjob&#x27;: False, &#x27;numthreads&#x27;: None, &#x27;quiet&#x27;: False, &#x27;import_models&#x27;: False, &#x27;timeout&#x27;: 10, &#x27;plain&#x27;: False, &#x27;nobanner&#x27;: False}&gt;</div></td></tr><tr><td style="font-weight:bold;vertical-align:top;">db_sessions</td><td style="vertical-align:top;">:</td><td><div>set([&#x27;AstroChat&#x27;])</div></td></tr><tr><td style="font-weight:bold;vertical-align:top;">debugging</td><td style="vertical-align:top;">:</td><td><div>False</div></td></tr><tr><td style="font-weight:bold;vertical-align:top;">gluon_parent</td><td style="vertical-align:top;">:</td><td><div>C:\\Users\\Michelle\\Documents\\web2py\\web2py</div></td></tr><tr><td style="font-weight:bold;vertical-align:top;">http_accept</td><td style="vertical-align:top;">:</td><td><div>text/html,application/xhtml+xml,application/xml;q=0.9,image/webp,image/apng,*/*;q=0.8</div></td></tr><tr><td style="font-weight:bold;vertical-align:top;">http_accept_encoding</td><td style="vertical-align:top;">:</td><td><div>gzip, deflate, br</div></td></tr><tr><td style="font-weight:bold;vertical-align:top;">http_accept_language</td><td style="vertical-align:top;">:</td><td><div>en-US,en;q=0.9</div></td></tr><tr><td style="font-weight:bold;vertical-align:top;">http_cache_control</td><td style="vertical-align:top;">:</td><td><div>max-age=0</div></td></tr><tr><td style="font-weight:bold;vertical-align:top;">http_connection</td><td style="vertical-align:top;">:</td><td><div>keep-alive</div></td></tr><tr><td style="font-weight:bold;vertical-align:top;">http_cookie</td><td style="vertical-align:top;">:</td><td><div>session_id_admin=127.0.0.1-9f486894-3745-46d4-b81e-6ad453c52d71; session_id_welcome=127.0.0.1-21bbf232-c298-444d-b20c-5e57f3cfb922; session_id_astrochat=&quot;6:1a63743e-c703-4af9-bbe9-65f6806720ac&quot;</div></td></tr><tr><td style="font-weight:bold;vertical-align:top;">http_host</td><td style="vertical-align:top;">:</td><td><div>127.0.0.1:8000</div></td></tr><tr><td style="font-weight:bold;vertical-align:top;">http_referer</td><td style="vertical-align:top;">:</td><td><div>http://127.0.0.1:8000/AstroChat/default/user/register</div></td></tr><tr><td style="font-weight:bold;vertical-align:top;">http_upgrade_insecure_requests</td><td style="vertical-align:top;">:</td><td><div>1</div></td></tr><tr><td style="font-weight:bold;vertical-align:top;">http_user_agent</td><td style="vertical-align:top;">:</td><td><div>Mozilla/5.0 (Windows NT 10.0; Win64; x64) AppleWebKit/537.36 (KHTML, like Gecko) Chrome/66.0.3359.181 Safari/537.36</div></td></tr><tr><td style="font-weight:bold;vertical-align:top;">is_jython</td><td style="vertical-align:top;">:</td><td><div>False</div></td></tr><tr><td style="font-weight:bold;vertical-align:top;">is_py2</td><td style="vertical-align:top;">:</td><td><div>True</div></td></tr><tr><td style="font-weight:bold;vertical-align:top;">is_pypy</td><td style="vertical-align:top;">:</td><td><div>False</div></td></tr><tr><td style="font-weight:bold;vertical-align:top;">is_source</td><td style="vertical-align:top;">:</td><td><div>True</div></td></tr><tr><td style="font-weight:bold;vertical-align:top;">local_hosts</td><td style="vertical-align:top;">:</td><td><div><table><tr><td><div>JAMESM12</div></td></tr><tr><td><div>169.233.199.179</div></td></tr><tr><td><div>JAMESM12.ucsc.edu</div></td></tr><tr><td><div>::ffff:127.0.0.1</div></td></tr><tr><td><div>::1</div></td></tr><tr><td><div>fe80::691c:2784:1eef:2af4%6</div></td></tr><tr><td><div>127.0.0.1</div></td></tr></table></div></td></tr><tr><td style="font-weight:bold;vertical-align:top;">path_info</td><td style="vertical-align:top;">:</td><td><div>/AstroChat/default/index</div></td></tr><tr><td style="font-weight:bold;vertical-align:top;">query_string</td><td style="vertical-align:top;">:</td><td><div></div></td></tr><tr><td style="font-weight:bold;vertical-align:top;">remote_addr</td><td style="vertical-align:top;">:</td><td><div>127.0.0.1</div></td></tr><tr><td style="font-weight:bold;vertical-align:top;">remote_port</td><td style="vertical-align:top;">:</td><td><div>57931</div></td></tr><tr><td style="font-weight:bold;vertical-align:top;">request_method</td><td style="vertical-align:top;">:</td><td><div>GET</div></td></tr><tr><td style="font-weight:bold;vertical-align:top;">request_uri</td><td style="vertical-align:top;">:</td><td><div>/AstroChat/default/index</div></td></tr><tr><td style="font-weight:bold;vertical-align:top;">script_name</td><td style="vertical-align:top;">:</td><td><div></div></td></tr><tr><td style="font-weight:bold;vertical-align:top;">server_name</td><td style="vertical-align:top;">:</td><td><div>JAMESM12</div></td></tr><tr><td style="font-weight:bold;vertical-align:top;">server_port</td><td style="vertical-align:top;">:</td><td><div>8000</div></td></tr><tr><td style="font-weight:bold;vertical-align:top;">server_protocol</td><td style="vertical-align:top;">:</td><td><div>HTTP/1.1</div></td></tr><tr><td style="font-weight:bold;vertical-align:top;">server_software</td><td style="vertical-align:top;">:</td><td><div>Rocket 1.2.6</div></td></tr><tr><td style="font-weight:bold;vertical-align:top;">web2py_path</td><td style="vertical-align:top;">:</td><td><div>C:\\Users\\Michelle\\Documents\\web2py\\web2py</div></td></tr><tr><td style="font-weight:bold;vertical-align:top;">web2py_version</td><td style="vertical-align:top;">:</td><td><div>2.16.1-stable+timestamp.2017.11.14.05.54.25</div></td></tr><tr><td style="font-weight:bold;vertical-align:top;">wsgi.errors</td><td style="vertical-align:top;">:</td><td><div>&lt;open file &#x27;&lt;stderr&gt;&#x27;, mode &#x27;w&#x27; at 0x000000000292B150&gt;</div></td></tr><tr><td style="font-weight:bold;vertical-align:top;">wsgi.file_wrapper</td><td style="vertical-align:top;">:</td><td><div>&lt;class wsgiref.util.FileWrapper at 0x0000000004220588&gt;</div></td></tr><tr><td style="font-weight:bold;vertical-align:top;">wsgi.input</td><td style="vertical-align:top;">:</td><td><div>&lt;socket._fileobject object at 0x0000000005964C00&gt;</div></td></tr><tr><td style="font-weight:bold;vertical-align:top;">wsgi.multiprocess</td><td style="vertical-align:top;">:</td><td><div>False</div></td></tr><tr><td style="font-weight:bold;vertical-align:top;">wsgi.multithread</td><td style="vertical-align:top;">:</td><td><div>True</div></td></tr><tr><td style="font-weight:bold;vertical-align:top;">wsgi.run_once</td><td style="vertical-align:top;">:</td><td><div>False</div></td></tr><tr><td style="font-weight:bold;vertical-align:top;">wsgi.url_scheme</td><td style="vertical-align:top;">:</td><td><div>http</div></td></tr><tr><td style="font-weight:bold;vertical-align:top;">wsgi.version</td><td style="vertical-align:top;">:</td><td><div><table><tr><td><div>1</div></td></tr><tr><td><div>0</div></td></tr></table></div></td></tr><tr><td style="font-weight:bold;vertical-align:top;">wsgi_errors</td><td style="vertical-align:top;">:</td><td><div>&lt;open file &#x27;&lt;stderr&gt;&#x27;, mode &#x27;w&#x27; at 0x000000000292B150&gt;</div></td></tr><tr><td style="font-weight:bold;vertical-align:top;">wsgi_file_wrapper</td><td style="vertical-align:top;">:</td><td><div>&lt;class wsgiref.util.FileWrapper at 0x0000000004220588&gt;</div></td></tr><tr><td style="font-weight:bold;vertical-align:top;">wsgi_input</td><td style="vertical-align:top;">:</td><td><div>&lt;socket._fileobject object at 0x0000000005964C00&gt;</div></td></tr><tr><td style="font-weight:bold;vertical-align:top;">wsgi_multiprocess</td><td style="vertical-align:top;">:</td><td><div>False</div></td></tr><tr><td style="font-weight:bold;vertical-align:top;">wsgi_multithread</td><td style="vertical-align:top;">:</td><td><div>True</div></td></tr><tr><td style="font-weight:bold;vertical-align:top;">wsgi_run_once</td><td style="vertical-align:top;">:</td><td><div>False</div></td></tr><tr><td style="font-weight:bold;vertical-align:top;">wsgi_url_scheme</td><td style="vertical-align:top;">:</td><td><div>http</div></td></tr><tr><td style="font-weight:bold;vertical-align:top;">wsgi_version</td><td style="vertical-align:top;">:</td><td><div><table><tr><td><div>1</div></td></tr><tr><td><div>0</div></td></tr></table></div></td></tr></table></div></td></tr><tr><td style="font-weight:bold;vertical-align:top;">extension</td><td style="vertical-align:top;">:</td><td><div>html</div></td></tr><tr><td style="font-weight:bold;vertical-align:top;">folder</td><td style="vertical-align:top;">:</td><td><div>C:\\Users\\Michelle\\Documents\\web2py\\web2py\\applications\\AstroChat\\</div></td></tr><tr><td style="font-weight:bold;vertical-align:top;">function</td><td style="vertical-align:top;">:</td><td><div>index</div></td></tr><tr><td style="font-weight:bold;vertical-align:top;">global_settings</td><td style="vertical-align:top;">:</td><td><div><table><tr><td style="font-weight:bold;vertical-align:top;">app_folders</td><td style="vertical-align:top;">:</td><td><div>set([&#x27;C:\\\\Users\\\\Michelle\\\\Documents\\\\web2py\\\\web2py\\\\applications\\\\welcome\\\\&#x27;, &#x27;C:\\\\Users\\\\Michelle\\\\Documents\\\\web2py\\\\web2py\\\\applications\\\\admin\\\\&#x27;, &#x27;C:\\\\Users\\\\Michelle\\\\Documents\\\\web2py\\\\web2py\\\\applications\\\\AstroChat\\\\&#x27;])</div></td></tr><tr><td style="font-weight:bold;vertical-align:top;">applications_parent</td><td style="vertical-align:top;">:</td><td><div>C:\\Users\\Michelle\\Documents\\web2py\\web2py</div></td></tr><tr><td style="font-weight:bold;vertical-align:top;">cmd_args</td><td style="vertical-align:top;">:</td><td><div><table></table></div></td></tr><tr><td style="font-weight:bold;vertical-align:top;">cmd_options</td><td style="vertical-align:top;">:</td><td><div>&lt;Values at 0x428b4c8: {&#x27;verbose&#x27;: False, &#x27;ip&#x27;: &#x27;127.0.0.1&#x27;, &#x27;debuglevel&#x27;: 30, &#x27;with_scheduler&#x27;: False, &#x27;shutdown_timeout&#x27;: 5, &#x27;taskbar&#x27;: False, &#x27;with_coverage&#x27;: False, &#x27;pid_filename&#x27;: &#x27;httpserver.pid&#x27;, &#x27;maxthreads&#x27;: None, &#x27;softcron&#x27;: False, &#x27;server_name&#x27;: &#x27;JAMESM12&#x27;, &#x27;bpython&#x27;: False, &#x27;nogui&#x27;: False, &#x27;port&#x27;: 8000, &#x27;print_errors&#x27;: False, &#x27;extcron&#x27;: False, &#x27;runcron&#x27;: False, &#x27;run_system_tests&#x27;: False, &#x27;test&#x27;: None, &#x27;folder&#x27;: &#x27;C:\\\\Users\\\\Michelle\\\\Documents\\\\web2py\\\\web2py&#x27;, &#x27;config&#x27;: &#x27;&#x27;, &#x27;minthreads&#x27;: None, &#x27;shell&#x27;: None, &#x27;run&#x27;: &#x27;&#x27;, &#x27;log_filename&#x27;: &#x27;httpserver.log&#x27;, &#x27;profiler_dir&#x27;: None, &#x27;args&#x27;: [&#x27;&#x27;], &#x27;socket_timeout&#x27;: 5, &#x27;ssl_ca_certificate&#x27;: None, &#x27;scheduler&#x27;: None, &#x27;interfaces&#x27;: None, &#x27;ssl_private_key&#x27;: &#x27;&#x27;, &#x27;gae&#x27;: None, &#x27;password&#x27;: &#x27;******&#x27;, &#x27;request_queue_size&#x27;: 5, &#x27;ssl_certificate&#x27;: &#x27;&#x27;, &#x27;cronjob&#x27;: False, &#x27;numthreads&#x27;: None, &#x27;quiet&#x27;: False, &#x27;import_models&#x27;: False, &#x27;timeout&#x27;: 10, &#x27;plain&#x27;: False, &#x27;nobanner&#x27;: False}&gt;</div></td></tr><tr><td style="font-weight:bold;vertical-align:top;">db_sessions</td><td style="vertical-align:top;">:</td><td><div>set([&#x27;AstroChat&#x27;])</div></td></tr><tr><td style="font-weight:bold;vertical-align:top;">debugging</td><td style="vertical-align:top;">:</td><td><div>False</div></td></tr><tr><td style="font-weight:bold;vertical-align:top;">gluon_parent</td><td style="vertical-align:top;">:</td><td><div>C:\\Users\\Michelle\\Documents\\web2py\\web2py</div></td></tr><tr><td style="font-weight:bold;vertical-align:top;">is_jython</td><td style="vertical-align:top;">:</td><td><div>False</div></td></tr><tr><td style="font-weight:bold;vertical-align:top;">is_py2</td><td style="vertical-align:top;">:</td><td><div>True</div></td></tr><tr><td style="font-weight:bold;vertical-align:top;">is_pypy</td><td style="vertical-align:top;">:</td><td><div>False</div></td></tr><tr><td style="font-weight:bold;vertical-align:top;">is_source</td><td style="vertical-align:top;">:</td><td><div>True</div></td></tr><tr><td style="font-weight:bold;vertical-align:top;">local_hosts</td><td style="vertical-align:top;">:</td><td><div><table><tr><td><div>JAMESM12</div></td></tr><tr><td><div>169.233.199.179</div></td></tr><tr><td><div>JAMESM12.ucsc.edu</div></td></tr><tr><td><div>::ffff:127.0.0.1</div></td></tr><tr><td><div>::1</div></td></tr><tr><td><div>fe80::691c:2784:1eef:2af4%6</div></td></tr><tr><td><div>127.0.0.1</div></td></tr></table></div></td></tr><tr><td style="font-weight:bold;vertical-align:top;">web2py_version</td><td style="vertical-align:top;">:</td><td><div>2.16.1-stable+timestamp.2017.11.14.05.54.25</div></td></tr></table></div></td></tr><tr><td style="font-weight:bold;vertical-align:top;">is_https</td><td style="vertical-align:top;">:</td><td><div>False</div></td></tr><tr><td style="font-weight:bold;vertical-align:top;">is_local</td><td style="vertical-align:top;">:</td><td><div>True</div></td></tr><tr><td style="font-weight:bold;vertical-align:top;">is_restful</td><td style="vertical-align:top;">:</td><td><div>False</div></td></tr><tr><td style="font-weight:bold;vertical-align:top;">is_scheduler</td><td style="vertical-align:top;">:</td><td><div>False</div></td></tr><tr><td style="font-weight:bold;vertical-align:top;">is_shell</td><td style="vertical-align:top;">:</td><td><div>False</div></td></tr><tr><td style="font-weight:bold;vertical-align:top;">now</td><td style="vertical-align:top;">:</td><td><div>datetime.datetime(2018, 6, 11, 13, 26, 2, 13000)</div></td></tr><tr><td style="font-weight:bold;vertical-align:top;">raw_args</td><td style="vertical-align:top;">:</td><td><div></div></td></tr><tr><td style="font-weight:bold;vertical-align:top;">raw_extension</td><td style="vertical-align:top;">:</td><td><div>None</div></td></tr><tr><td style="font-weight:bold;vertical-align:top;">url</td><td style="vertical-align:top;">:</td><td><div>/AstroChat/default/index</div></td></tr><tr><td style="font-weight:bold;vertical-align:top;">utcnow</td><td style="vertical-align:top;">:</td><td><div>datetime.datetime(2018, 6, 11, 20, 26, 2, 13000)</div></td></tr><tr><td style="font-weight:bold;vertical-align:top;">wsgi</td><td style="vertical-align:top;">:</td><td><div>&lt;gluon.main.LazyWSGI object at 0x000000000592F978&gt;</div></td></tr></table></div>'
tRp60
sS'frames'
p61
(lp62
(dp63
S'file'
p64
S'C:\\Users\\Michelle\\Documents\\web2py\\web2py\\gluon\\restricted.py'
p65
sS'dump'
p66
(dp67
S'environment'
p68
S"{'A': <class 'gluon.html.A'>, 'ANY_OF': <class 'gluon.validators.ANY_OF'>, 'ASSIGNJS': <function ASSIGNJS>, 'AppConfig': <function AppConfig>, 'Auth': <class 'gluon.tools.Auth'>, 'B': <class 'gluon.html.B'>, 'BEAUTIFY': <class 'gluon.html.BEAUTIFY'>, 'BODY': <class 'gluon.html.BODY'>, 'BR': <class 'gluon.html.BR'>, 'BUTTON': <class 'gluon.html.BUTTON'>, ...}"
p69
sS'ccode'
p70
S'<code object <module> at 000000000D675030, file ...ions\\AstroChat\\views\\default/index.html", line 1>'
p71
ssS'lnum'
p72
I219
sS'lines'
p73
(dp74
I214
S'    if environment is None:'
p75
sI215
S'        environment = {}'
p76
sI216
S"    environment['__file__'] = layer"
p77
sI217
S"    environment['__name__'] = '__restricted__'"
p78
sI218
S'    try:'
p79
sI219
S'        exec(ccode, environment)'
p80
sI220
S'    except HTTP:'
p81
sI221
S'        raise'
p82
sI222
S'    except RestrictedError:'
p83
sI223
S'        # do not encapsulate (obfuscate) the original RestrictedError'
p84
ssS'call'
p85
S'(ccode=<code object <module> at 000000000D675030, file ...ions\\AstroChat\\views\\default/index.html", line 1>, environment={\'A\': <class \'gluon.html.A\'>, \'ANY_OF\': <class \'gluon.validators.ANY_OF\'>, \'ASSIGNJS\': <function ASSIGNJS>, \'AppConfig\': <function AppConfig>, \'Auth\': <class \'gluon.tools.Auth\'>, \'B\': <class \'gluon.html.B\'>, \'BEAUTIFY\': <class \'gluon.html.BEAUTIFY\'>, \'BODY\': <class \'gluon.html.BODY\'>, \'BR\': <class \'gluon.html.BR\'>, \'BUTTON\': <class \'gluon.html.BUTTON\'>, ...}, layer=r\'C:\\Users\\Michelle\\Documents\\web2py\\web2py\\applications\\AstroChat\\views\\default/index.html\', scode=\'response.write(\\\'<html>\\\\n  <head>\\\\n    <meta char...ef)));});\\\\n  </script>\\\\n</html>\\\\n", escape=False)\')'
p86
sS'func'
p87
S'restricted'
p88
sa(dp89
g64
S'C:\\Users\\Michelle\\Documents\\web2py\\web2py\\applications\\AstroChat\\views\\default\\index.html'
p90
sg66
(dp91
S'div'
p92
S'undefined'
p93
ssg72
I60
sg73
(dp94
I64
S'        response.write(curruser.birthday)'
p95
sI65
S"        response.write('. Your sign is: ', escape=False)"
p96
sI66
S'        response.write(sign)'
p97
sI67
S"        response.write('</h3>\\n                <h2>Here is your yearly horoscope:</h2>\\n                ', escape=False)"
p98
sI68
S'        response.write(year_horoscope)'
p99
sI69
S"        response.write('\\n                <h2>Here is your monthly horoscope:</h2>\\n                ', escape=False)"
p100
sI70
S'        response.write(month_horoscope)'
p101
sI51
S'    response.write(\'" class="btn large">Login</a>\\n    \\t\\t<br>\\n    \\t\\t<a href="\', escape=False)'
p102
sI52
S"    response.write(URL('default', 'user', args='register', vars={'_next': request.vars._next} if request.vars._next else None))"
p103
sI53
S'    response.write(\'" class="btn large">Sign Up</a>\\n    \\t</div>\\n    \\t<div class="twothirds about_astrochat">\\n    \\t\\t<h3 class="center">About Astrochat</h3>\\n    \\t\\t<tbody class=\\\'middle\\\'>&nbsp;&nbsp;&nbsp;&nbsp;&nbsp;&nbsp;&nbsp;&nbsp;Description and over of Astrochat. Blah blah blah, just to take up space. Astrochat Astrochat Astrochat AstrochatAstrochat AstrochatAstrochat AstrochatAstrochat AstrochatAstrochat AstrochatAstrochat AstrochatAstrochat AstrochatAstrochat AstrochatAstrochat AstrochatAstrochat AstrochatAstrochat AstrochatAstrochat AstrochatAstrochat AstrochatAstrochat Astrochat</tbody>\\n    \\t</div>\\n    </div> \\n    <br><br>\\n    <br><br>\\n    <div class="bottomwebpage container">\\n    \\t<h3 class="center">Check out your horoscope for today below:</h3>\\n    \\t<br><br>\\n    \\t<iframe src="https://www.horoscope.com/us/index.aspx" scrolling="no" style="height:100%; width:100%;"> \\n    \\t\\t<p>Your browser does not support iframes.</p>\\n    \\t</iframe>\\n    </div>\\n\\n\\n\\n\\t\', escape=False)'
p104
sI54
S'else:'
p105
sI55
S'    response.write(\'\\n    <h1>Welcome to AstroChat!</h1>\\n\\n\\n\\n  \\t<div class="profile_btn">\\n    \\t<a class="btn rounded" href="\', escape=False)'
p106
sI56
S"    response.write(URL('default','edit_profile'))"
p107
sI57
S'    response.write(\'">\\n      \\t\\t<i class="fa fa-edit fa-lg"></i>\\n    \\t</a>\\n        <a class="btn rounded" href="\', escape=False)'
p108
sI58
S"    response.write(URL('default', 'about_me'))"
p109
sI59
S'    response.write(\'">\\n            <i class="fa fa-edge">About Me</i>\\n        </a>\\n  \\t</div>\\n    <div class="bday">\\n        \', escape=False)'
p110
sI60
S'    if curruser.birthday is None:'
p111
sI61
S"        response.write('\\n                <h3>Please edit your profile and input your birthday</h3>\\n        ', escape=False)"
p112
sI62
S'    else:'
p113
sI63
S"        response.write('\\n                <h3>Your birthday is: ', escape=False)"
p114
ssg85
S'()'
p115
sg87
S'<module>'
p116
sasS'pyver'
p117
S'Python 2.7.14: C:\\Users\\Michelle\\Anaconda2\\python.exe (prefix: C:\\Users\\Michelle\\Anaconda2)'
p118
sS'session'
p119
g59
(S's\xe5\x08\x00\x00<div><table><tr><td style="font-weight:bold;vertical-align:top;">auth</td><td style="vertical-align:top;">:</td><td><div><table><tr><td style="font-weight:bold;vertical-align:top;">expiration</td><td style="vertical-align:top;">:</td><td><div>3600</div></td></tr><tr><td style="font-weight:bold;vertical-align:top;">hmac_key</td><td style="vertical-align:top;">:</td><td><div>f41786c9-6b42-4d8a-aff6-a0261ebfc8f4</div></td></tr><tr><td style="font-weight:bold;vertical-align:top;">last_visit</td><td style="vertical-align:top;">:</td><td><div>datetime.datetime(2018, 6, 11, 13, 26, 1, 902000)</div></td></tr><tr><td style="font-weight:bold;vertical-align:top;">user</td><td style="vertical-align:top;">:</td><td><div><table><tr><td style="font-weight:bold;vertical-align:top;">email</td><td style="vertical-align:top;">:</td><td><div>user10@gmail.com</div></td></tr><tr><td style="font-weight:bold;vertical-align:top;">first_name</td><td style="vertical-align:top;">:</td><td><div>User10</div></td></tr><tr><td style="font-weight:bold;vertical-align:top;">id</td><td style="vertical-align:top;">:</td><td><div>6L</div></td></tr><tr><td style="font-weight:bold;vertical-align:top;">last_name</td><td style="vertical-align:top;">:</td><td><div>hello</div></td></tr><tr><td style="font-weight:bold;vertical-align:top;">registration_id</td><td style="vertical-align:top;">:</td><td><div></div></td></tr><tr><td style="font-weight:bold;vertical-align:top;">registration_key</td><td style="vertical-align:top;">:</td><td><div></div></td></tr><tr><td style="font-weight:bold;vertical-align:top;">reset_password_key</td><td style="vertical-align:top;">:</td><td><div></div></td></tr><tr><td style="font-weight:bold;vertical-align:top;">username</td><td style="vertical-align:top;">:</td><td><div>user10</div></td></tr></table></div></td></tr><tr><td style="font-weight:bold;vertical-align:top;">user_groups</td><td style="vertical-align:top;">:</td><td><div><table><tr><td style="font-weight:bold;vertical-align:top;">6</td><td style="vertical-align:top;">:</td><td><div>user_6</div></td></tr></table></div></td></tr></table></div></td></tr><tr><td style="font-weight:bold;vertical-align:top;">flash</td><td style="vertical-align:top;">:</td><td><div>None</div></td></tr></table></div>'
tRp120
sS'etype'
p121
S"<type 'exceptions.AttributeError'>"
p122
sS'date'
p123
S'Mon Jun 11 13:26:02 2018'
p124
sS'response'
p125
g59
(S'st!\x00\x00<div><table><tr><td style="font-weight:bold;vertical-align:top;">body</td><td style="vertical-align:top;">:</td><td><div>&lt;cStringIO.StringO object at 0x00000000042B0AB0&gt;</div></td></tr><tr><td style="font-weight:bold;vertical-align:top;">cookies</td><td style="vertical-align:top;">:</td><td><div><table><tr><td style="font-weight:bold;vertical-align:top;">session_id_astrochat</td><td style="vertical-align:top;">:</td><td><div>6:1a63743e-c703-4af9-bbe9-65f6806720ac<table><tr><td style="font-weight:bold;vertical-align:top;">comment</td><td style="vertical-align:top;">:</td><td><div></div></td></tr><tr><td style="font-weight:bold;vertical-align:top;">domain</td><td style="vertical-align:top;">:</td><td><div></div></td></tr><tr><td style="font-weight:bold;vertical-align:top;">expires</td><td style="vertical-align:top;">:</td><td><div></div></td></tr><tr><td style="font-weight:bold;vertical-align:top;">httponly</td><td style="vertical-align:top;">:</td><td><div></div></td></tr><tr><td style="font-weight:bold;vertical-align:top;">max-age</td><td style="vertical-align:top;">:</td><td><div></div></td></tr><tr><td style="font-weight:bold;vertical-align:top;">path</td><td style="vertical-align:top;">:</td><td><div>/</div></td></tr><tr><td style="font-weight:bold;vertical-align:top;">secure</td><td style="vertical-align:top;">:</td><td><div></div></td></tr><tr><td style="font-weight:bold;vertical-align:top;">version</td><td style="vertical-align:top;">:</td><td><div></div></td></tr></table></div></td></tr></table></div></td></tr><tr><td style="font-weight:bold;vertical-align:top;">delimiters</td><td style="vertical-align:top;">:</td><td><div><table><tr><td><div>{{</div></td></tr><tr><td><div>}}</div></td></tr></table></div></td></tr><tr><td style="font-weight:bold;vertical-align:top;">files</td><td style="vertical-align:top;">:</td><td><div><table><tr><td><div>/AstroChat/static/js/jquery.js</div></td></tr><tr><td><div>/AstroChat/static/css/calendar.css</div></td></tr><tr><td><div>/AstroChat/static/js/calendar.js</div></td></tr><tr><td><div>/AstroChat/static/js/web2py.js</div></td></tr></table></div></td></tr><tr><td style="font-weight:bold;vertical-align:top;">flash</td><td style="vertical-align:top;">:</td><td><div>Logged in</div></td></tr><tr><td style="font-weight:bold;vertical-align:top;">form_label_separator</td><td style="vertical-align:top;">:</td><td><div></div></td></tr><tr><td style="font-weight:bold;vertical-align:top;">formstyle</td><td style="vertical-align:top;">:</td><td><div>bootstrap3_inline</div></td></tr><tr><td style="font-weight:bold;vertical-align:top;">generic_patterns</td><td style="vertical-align:top;">:</td><td><div><table><tr><td><div>*</div></td></tr></table></div></td></tr><tr><td style="font-weight:bold;vertical-align:top;">google_analytics_id</td><td style="vertical-align:top;">:</td><td><div>None</div></td></tr><tr><td style="font-weight:bold;vertical-align:top;">headers</td><td style="vertical-align:top;">:</td><td><div><table><tr><td style="font-weight:bold;vertical-align:top;">X-Powered-By</td><td style="vertical-align:top;">:</td><td><div>web2py</div></td></tr></table></div></td></tr><tr><td style="font-weight:bold;vertical-align:top;">logo</td><td style="vertical-align:top;">:</td><td><div><a class="navbar-brand" href="http://www.web2py.com/" id="web2py-logo"><b>web<span>2</span>py</b>&trade;&nbsp;</a></div></td></tr><tr><td style="font-weight:bold;vertical-align:top;">menu</td><td style="vertical-align:top;">:</td><td><div><table><tr><td><div><table><tr><td><div>Home</div></td></tr><tr><td><div>False</div></td></tr><tr><td><div>/AstroChat/default/index</div></td></tr><tr><td><div><table></table></div></td></tr></table></div></td></tr><tr><td><div><table><tr><td><div>My Sites</div></td></tr><tr><td><div>False</div></td></tr><tr><td><div>/admin/default/site</div></td></tr></table></div></td></tr><tr><td><div><table><tr><td><div>Sample Menu 1</div></td></tr><tr><td><div>False</div></td></tr><tr><td><div>#</div></td></tr><tr><td><div><table><tr><td><div><table><tr><td><div>Entry1</div></td></tr><tr><td><div>False</div></td></tr><tr><td><div>/AstroChat/default/entry1</div></td></tr></table></div></td></tr><tr><td><div><table><tr><td><div>Entry2</div></td></tr><tr><td><div>False</div></td></tr><tr><td><div>/AstroChat/default/entry2</div></td></tr></table></div></td></tr></table></div></td></tr></table></div></td></tr><tr><td><div><table><tr><td><div>Sample Menu 2</div></td></tr><tr><td><div>False</div></td></tr><tr><td><div>/AstroChat/default/index</div></td></tr></table></div></td></tr></table></div></td></tr><tr><td style="font-weight:bold;vertical-align:top;">meta</td><td style="vertical-align:top;">:</td><td><div><table><tr><td style="font-weight:bold;vertical-align:top;">author</td><td style="vertical-align:top;">:</td><td><div>Your Name &lt;you@example.com&gt;</div></td></tr><tr><td style="font-weight:bold;vertical-align:top;">description</td><td style="vertical-align:top;">:</td><td><div>a cool new app</div></td></tr><tr><td style="font-weight:bold;vertical-align:top;">generator</td><td style="vertical-align:top;">:</td><td><div>Web2py Web Framework</div></td></tr><tr><td style="font-weight:bold;vertical-align:top;">keywords</td><td style="vertical-align:top;">:</td><td><div><table><tr><td><div>web2py</div></td></tr><tr><td><div>python</div></td></tr><tr><td><div>framework</div></td></tr></table></div></td></tr></table></div></td></tr><tr><td style="font-weight:bold;vertical-align:top;">models_to_run</td><td style="vertical-align:top;">:</td><td><div><table><tr><td><div>^\\w+\\.py$</div></td></tr><tr><td><div>^default/\\w+\\.py$</div></td></tr><tr><td><div>^default/index/\\w+\\.py$</div></td></tr></table></div></td></tr><tr><td style="font-weight:bold;vertical-align:top;">postprocessing</td><td style="vertical-align:top;">:</td><td><div><table></table></div></td></tr><tr><td style="font-weight:bold;vertical-align:top;">session_client</td><td style="vertical-align:top;">:</td><td><div>127.0.0.1</div></td></tr><tr><td style="font-weight:bold;vertical-align:top;">session_cookie_compression_level</td><td style="vertical-align:top;">:</td><td><div>None</div></td></tr><tr><td style="font-weight:bold;vertical-align:top;">session_cookie_expires</td><td style="vertical-align:top;">:</td><td><div>None</div></td></tr><tr><td style="font-weight:bold;vertical-align:top;">session_data_name</td><td style="vertical-align:top;">:</td><td><div>session_data_astrochat</div></td></tr><tr><td style="font-weight:bold;vertical-align:top;">session_db_record_id</td><td style="vertical-align:top;">:</td><td><div>6L</div></td></tr><tr><td style="font-weight:bold;vertical-align:top;">session_db_table</td><td style="vertical-align:top;">:</td><td><div>&lt;Table web2py_session_AstroChat (id, locked, client_ip, created_datetime, modified_datetime, unique_key, session_data)&gt;</div></td></tr><tr><td style="font-weight:bold;vertical-align:top;">session_db_unique_key</td><td style="vertical-align:top;">:</td><td><div>1a63743e-c703-4af9-bbe9-65f6806720ac</div></td></tr><tr><td style="font-weight:bold;vertical-align:top;">session_hash</td><td style="vertical-align:top;">:</td><td><div>8ce36e6a5da4d6858704eb2de00832f5</div></td></tr><tr><td style="font-weight:bold;vertical-align:top;">session_id</td><td style="vertical-align:top;">:</td><td><div>6:1a63743e-c703-4af9-bbe9-65f6806720ac</div></td></tr><tr><td style="font-weight:bold;vertical-align:top;">session_id_name</td><td style="vertical-align:top;">:</td><td><div>session_id_astrochat</div></td></tr><tr><td style="font-weight:bold;vertical-align:top;">session_masterapp</td><td style="vertical-align:top;">:</td><td><div>AstroChat</div></td></tr><tr><td style="font-weight:bold;vertical-align:top;">session_new</td><td style="vertical-align:top;">:</td><td><div>False</div></td></tr><tr><td style="font-weight:bold;vertical-align:top;">session_storage_type</td><td style="vertical-align:top;">:</td><td><div>db</div></td></tr><tr><td style="font-weight:bold;vertical-align:top;">status</td><td style="vertical-align:top;">:</td><td><div>200</div></td></tr><tr><td style="font-weight:bold;vertical-align:top;">subtitle</td><td style="vertical-align:top;">:</td><td><div></div></td></tr><tr><td style="font-weight:bold;vertical-align:top;">title</td><td style="vertical-align:top;">:</td><td><div>Astrochat</div></td></tr><tr><td style="font-weight:bold;vertical-align:top;">view</td><td style="vertical-align:top;">:</td><td><div>default/index.html</div></td></tr></table></div>'
tRp126
sS'locals'
p127
(dp128
S'Service'
p129
S"<class 'gluon.tools.Service'>"
p130
sS'FORMAT'
p131
S"'%(asctime)s %(levelname)s %(process)s %(thread)s %(funcName)s():%(lineno)d %(message)s'"
p132
sS'PY2'
p133
S'True'
p134
sS'OBJECT'
p135
S"<class 'gluon.html.OBJECT'>"
p136
sS'year_horoscope'
p137
S'None'
p138
sS'SQLDB'
p139
S"<class 'pydal.base.DAL'>"
p140
sg119
S"<Storage {'flash': None, '_formkey[register]': [...26, 1, 902000), 'user_groups': {6L: 'user_6'}}>}>"
p141
sS'LINK'
p142
S"<class 'gluon.html.LINK'>"
p143
sS'BR'
p144
S"<class 'gluon.html.BR'>"
p145
sS'local_import'
p146
S'<function <lambda>>'
p147
sS'OPTGROUP'
p148
S"<class 'gluon.html.OPTGROUP'>"
p149
sS'__package__'
p150
S'None'
p151
sS'PRE'
p152
S"<class 'gluon.html.PRE'>"
p153
sS'IS_INT_IN_RANGE'
p154
S"<class 'gluon.validators.IS_INT_IN_RANGE'>"
p155
sS'to_bytes'
p156
S'<function to_bytes>'
p157
sS'IS_LOWER'
p158
S"<class 'gluon.validators.IS_LOWER'>"
p159
sS'IS_STRONG'
p160
S"<class 'gluon.validators.IS_STRONG'>"
p161
sS'cache'
p162
S'<gluon.cache.Cache object>'
p163
sS'IS_IN_DB'
p164
S"<class 'gluon.validators.IS_IN_DB'>"
p165
sS'TAG'
p166
S'<gluon.html.__TAG__ object>'
p167
sS'SQLField'
p168
S"<class 'pydal.objects.Field'>"
p169
sS'mail'
p170
S'<gluon.tools.Mail object>'
p171
sS'logger'
p172
S'<logging.Logger object>'
p173
sS'BODY'
p174
S"<class 'gluon.html.BODY'>"
p175
sS'IS_DATE_IN_RANGE'
p176
S"<class 'gluon.validators.IS_DATE_IN_RANGE'>"
p177
sS'IFRAME'
p178
S"<class 'gluon.html.IFRAME'>"
p179
sS'URL'
p180
S'<function URL>'
p181
sS'__file__'
p182
S"r'C:\\Users\\Michelle\\Documents\\web2py\\web2py\\applications\\AstroChat\\views\\default/index.html'"
p183
sS'db'
p184
S'<DAL uri="sqlite://storage.sqlite">'
p185
sS'auth'
p186
S'<gluon.tools.Auth object>'
p187
sS'P'
S"<class 'gluon.html.P'>"
p188
sS'T'
S'<gluon.languages.translator object>'
p189
sS'iteritems'
p190
S'<function <lambda>>'
p191
sS'day_horoscope'
p192
S'None'
p193
sS'XHTML'
p194
S"<class 'gluon.html.XHTML'>"
p195
sS'datetime'
p196
S"<module 'datetime' (built-in)>"
p197
sS'ON'
p198
g134
sS'OL'
p199
S"<class 'gluon.html.OL'>"
p200
sS'TEXTAREA'
p201
S"<class 'gluon.html.TEXTAREA'>"
p202
sS'MENU'
p203
S"<class 'gluon.html.MENU'>"
p204
sS'IS_IMAGE'
p205
S"<class 'gluon.validators.IS_IMAGE'>"
p206
sS'EM'
p207
S"<class 'gluon.html.EM'>"
p208
sS'CODE'
p209
S"<class 'gluon.html.CODE'>"
p210
sS'HTTP'
p211
S"<class 'gluon.http.HTTP'>"
p212
sS'HR'
p213
S"<class 'gluon.html.HR'>"
p214
sS'IS_DATETIME'
p215
S"<class 'gluon.validators.IS_DATETIME'>"
p216
sS'reduce'
p217
S'<built-in function reduce>'
p218
sS'STYLE'
p219
S"<class 'gluon.html.STYLE'>"
p220
sS'LABEL'
p221
S"<class 'gluon.html.LABEL'>"
p222
sS'CLEANUP'
p223
S"<class 'gluon.validators.CLEANUP'>"
p224
sS'plugins'
p225
S'<gluon.tools.PluginManager object>'
p226
sS'INPUT'
p227
S"<class 'gluon.html.INPUT'>"
p228
sS'SELECT'
p229
S"<class 'gluon.html.SELECT'>"
p230
sS'CENTER'
p231
S"<class 'gluon.html.CENTER'>"
p232
sS'Auth'
p233
S"<class 'gluon.tools.Auth'>"
p234
sS'DEVELOPMENT_MENU'
p235
g134
sS'__builtins__'
p236
S"{'ArithmeticError': <type 'exceptions.ArithmeticError'>, 'AssertionError': <type 'exceptions.AssertionError'>, 'AttributeError': <type 'exceptions.AttributeError'>, 'BaseException': <type 'exceptions.BaseException'>, 'BufferError': <type 'exceptions.BufferError'>, 'BytesWarning': <type 'exceptions.BytesWarning'>, 'DeprecationWarning': <type 'exceptions.DeprecationWarning'>, 'EOFError': <type 'exceptions.EOFError'>, 'Ellipsis': Ellipsis, 'EnvironmentError': <type 'exceptions.EnvironmentError'>, ...}"
p237
sS'HTML'
p238
S"<class 'gluon.html.HTML'>"
p239
sS'SQLFORM'
p240
S"<class 'gluon.sqlhtml.SQLFORM'>"
p241
sS'LOAD'
p242
S'<function LOAD>'
p243
sS'redirect'
p244
S'<function redirect>'
p245
sS'FIELDSET'
p246
S"<class 'gluon.html.FIELDSET'>"
p247
sS'IS_EQUAL_TO'
p248
S"<class 'gluon.validators.IS_EQUAL_TO'>"
p249
sS'embed64'
p250
S'<function embed64>'
p251
sS'IS_LIST_OF'
p252
S"<class 'gluon.validators.IS_LIST_OF'>"
p253
sS'curruser'
p254
S'None'
p255
sS'EMBED'
p256
S"<class 'gluon.html.EMBED'>"
p257
sS'_'
S'<function _>'
p258
sS'FORM'
p259
S"<class 'gluon.html.FORM'>"
p260
sS'logging'
p261
S"<module 'logging' from 'C:\\Users\\Michelle\\Anaconda2\\lib\\logging\\__init__.pyc'>"
p262
sS'myconf'
p263
S"{'forms': {'formstyle': 'bootstrap3_inline', 'se...': {'names': 'localhost:*, 127.0.0.1:*, *:*, *'}}"
p264
sS'H2'
p265
S"<class 'gluon.html.H2'>"
p266
sS'H3'
p267
S"<class 'gluon.html.H3'>"
p268
sS'AppConfig'
p269
S'<function AppConfig>'
p270
sS'H1'
p271
S"<class 'gluon.html.H1'>"
p272
sS'H6'
p273
S"<class 'gluon.html.H6'>"
p274
sS'H4'
p275
S"<class 'gluon.html.H4'>"
p276
sS'H5'
p277
S"<class 'gluon.html.H5'>"
p278
sS'UL'
p279
S"<class 'gluon.html.UL'>"
p280
sS'IS_UPPER'
p281
S"<class 'gluon.validators.IS_UPPER'>"
p282
sS'xmlescape'
p283
S'<function xmlescape>'
p284
sS'IS_TIME'
p285
S"<class 'gluon.validators.IS_TIME'>"
p286
sS'os'
p287
S"<module 'os' from 'C:\\Users\\Michelle\\Anaconda2\\lib\\os.pyc'>"
p288
sS'OPTION'
p289
S"<class 'gluon.html.OPTION'>"
p290
sS'TITLE'
p291
S"<class 'gluon.html.TITLE'>"
p292
sS'CRYPT'
p293
S"<class 'gluon.validators.CRYPT'>"
p294
sS'IS_EMPTY_OR'
p295
S"<class 'gluon.validators.IS_EMPTY_OR'>"
p296
sS'MARKMIN'
p297
S"<class 'gluon.html.MARKMIN'>"
p298
sS'__name__'
p299
S"'__restricted__'"
p300
sg20
S"<lazyT 'Welcome!'>"
p301
sS'STRONG'
p302
S"<class 'gluon.html.STRONG'>"
p303
sS'COL'
p304
S"<class 'gluon.html.COL'>"
p305
sS'service'
p306
S'<gluon.tools.Service object>'
p307
sS'SCRIPT'
p308
S"<class 'gluon.html.SCRIPT'>"
p309
sS'TABLE'
p310
S"<class 'gluon.html.TABLE'>"
p311
sS'IS_IPV4'
p312
S"<class 'gluon.validators.IS_IPV4'>"
p313
sS'IS_LENGTH'
p314
S"<class 'gluon.validators.IS_LENGTH'>"
p315
sS'IS_IPV6'
p316
S"<class 'gluon.validators.IS_IPV6'>"
p317
sS'XML'
p318
S"<class 'gluon.html.XML'>"
p319
sS'B'
S"<class 'gluon.html.B'>"
p320
sS'IMG'
p321
S"<class 'gluon.html.IMG'>"
p322
sS'SQLTABLE'
p323
S"<class 'gluon.sqlhtml.SQLTABLE'>"
p324
sS'week_horoscope'
p325
S'None'
p326
sS'IS_MATCH'
p327
S"<class 'gluon.validators.IS_MATCH'>"
p328
sS'IS_ALPHANUMERIC'
p329
S"<class 'gluon.validators.IS_ALPHANUMERIC'>"
p330
sS'get_user_email'
p331
S'<function get_user_email>'
p332
sS'sign'
p333
S'None'
p334
sS'SPAN'
p335
S"<class 'gluon.html.SPAN'>"
p336
sS'IS_JSON'
p337
S"<class 'gluon.validators.IS_JSON'>"
p338
sS'IS_IPADDRESS'
p339
S"<class 'gluon.validators.IS_IPADDRESS'>"
p340
sS'IS_SLUG'
p341
S"<class 'gluon.validators.IS_SLUG'>"
p342
sS'BEAUTIFY'
p343
S"<class 'gluon.html.BEAUTIFY'>"
p344
sS'META'
p345
S"<class 'gluon.html.META'>"
p346
sS'BUTTON'
p347
S"<class 'gluon.html.BUTTON'>"
p348
sS'IS_DATE'
p349
S"<class 'gluon.validators.IS_DATE'>"
p350
sS'IS_EMAIL'
p351
S"<class 'gluon.validators.IS_EMAIL'>"
p352
sS'IS_NOT_EMPTY'
p353
S"<class 'gluon.validators.IS_NOT_EMPTY'>"
p354
sS'xrange'
p355
S"<type 'xrange'>"
p356
sS'TBODY'
p357
S"<class 'gluon.html.TBODY'>"
p358
sS'CAT'
p359
S"<class 'gluon.html.CAT'>"
p360
sS'Field'
p361
S"<class 'pydal.objects.Field'>"
p362
sS'IS_LIST_OF_EMAILS'
p363
S"<class 'gluon.validators.IS_LIST_OF_EMAILS'>"
p364
sg58
S"<Storage {'_vars': <Storage {}>, 'function': 'in...nts\\\\web2py\\\\web2py\\\\applications\\\\AstroChat\\\\'}>"
p365
sS'DIV'
p366
S"<class 'gluon.html.DIV'>"
p367
sS'LEGEND'
p368
S"<class 'gluon.html.LEGEND'>"
p369
sS'to_native'
p370
S'<function to_native>'
p371
sS'COLGROUP'
p372
S"<class 'gluon.html.COLGROUP'>"
p373
sS'DAL'
p374
S"<class 'pydal.base.DAL'>"
p375
sS'ASSIGNJS'
p376
S'<function ASSIGNJS>'
p377
sS'TR'
p378
S"<class 'gluon.html.TR'>"
p379
sS'LI'
p380
S"<class 'gluon.html.LI'>"
p381
sS'TH'
p382
S"<class 'gluon.html.TH'>"
p383
sS'TD'
p384
S"<class 'gluon.html.TD'>"
p385
sS'PluginManager'
p386
S"<class 'gluon.tools.PluginManager'>"
p387
sS'IS_URL'
p388
S"<class 'gluon.validators.IS_URL'>"
p389
sS'A'
S"<class 'gluon.html.A'>"
p390
sS'HEAD'
p391
S"<class 'gluon.html.HEAD'>"
p392
sS'IS_DATETIME_IN_RANGE'
p393
S"<class 'gluon.validators.IS_DATETIME_IN_RANGE'>"
p394
sS'month_horoscope'
p395
S'None'
p396
sS'I'
S"<class 'gluon.html.I'>"
p397
sS'sys'
p398
S"<module 'sys' (built-in)>"
p399
sS'IS_NOT_IN_DB'
p400
S"<class 'gluon.validators.IS_NOT_IN_DB'>"
p401
sg125
S"<Storage {'body': <cStringIO.StringO object at 0...y, session_data)>, 'view': 'default/index.html'}>"
p402
sS'THEAD'
p403
S"<class 'gluon.html.THEAD'>"
p404
sS'ANY_OF'
p405
S"<class 'gluon.validators.ANY_OF'>"
p406
sS'IS_NULL_OR'
p407
S"<class 'gluon.validators.IS_EMPTY_OR'>"
p408
sS'TFOOT'
p409
S"<class 'gluon.html.TFOOT'>"
p410
sS'IS_FLOAT_IN_RANGE'
p411
S"<class 'gluon.validators.IS_FLOAT_IN_RANGE'>"
p412
sS'IS_EXPR'
p413
S"<class 'gluon.validators.IS_EXPR'>"
p414
sS'IS_IN_SET'
p415
S"<class 'gluon.validators.IS_IN_SET'>"
p416
sS'IS_UPLOAD_FILENAME'
p417
S"<class 'gluon.validators.IS_UPLOAD_FILENAME'>"
p418
sS'TT'
p419
S"<class 'gluon.html.TT'>"
p420
sS'IS_DECIMAL_IN_RANGE'
p421
S"<class 'gluon.validators.IS_DECIMAL_IN_RANGE'>"
p422
sssS'traceback'
p423
S'Traceback (most recent call last):\n  File "C:\\Users\\Michelle\\Documents\\web2py\\web2py\\gluon\\restricted.py", line 219, in restricted\n    exec(ccode, environment)\n  File "C:\\Users\\Michelle\\Documents\\web2py\\web2py\\applications\\AstroChat\\views\\default/index.html", line 60, in <module>\n    </div>\nAttributeError: \'NoneType\' object has no attribute \'birthday\'\n'
p424
s.